(dp0
I1
S'<TITLE>\n experimental investigation of the aerodynamics of a\n wing in a slipstream .\n '
p1
sI2
S'<TITLE>\n simple shear flow past a flat plate in an incompressible fluid of small\n viscosity .\n '
p2
sI3
S'<TITLE>\n the boundary layer in simple shear flow past a flat plate .\n '
p3
sI4
S'<TITLE>\n approximate solutions of the incompressible laminar\n boundary layer equations for a plate in shear flow .\n '
p4
sI5
S'<TITLE>\n one-dimensional transient heat conduction into a double-layer\n slab subjected to a linear heat input for a small time\n internal .\n '
p5
sI6
S'<TITLE>\n one-dimensional transient heat flow in a multilayer\n slab .\n '
p6
sI7
S'<TITLE>\n the effect of controlled three-dimensional roughness\n on boundary layer transition at supersonic speeds .\n '
p7
sI8
S'<TITLE>\n measurements of the effect of two-dimensional and three-dimensional\n roughness elements on boundary layer transition .\n '
p8
sI9
S'<TITLE>\n transition studies and skin friction measurements on\n an insulated flat plate at a mach number of 5.8.\n '
p9
sI10
S'<TITLE>\n the theory of the impact tube at low pressure .\n '
p10
sI11
S'<TITLE>\n similar solutions in compressible laminar free mixing\n problems .\n '
p11
sI12
S'<TITLE>\n some structural and aerelastic considerations of high\n speed flight .\n '
p12
sI13
S'<TITLE>\n similarity laws for stressing heated wings .\n '
p13
sI14
S'<TITLE>\n piston theory - a new aerodynamic tool for the aeroelastician\n .\n '
p14
sI15
S'<TITLE>\n on two-dimensional panel flutter .\n '
p15
sI16
S'<TITLE>\n transformation of the compressible turbulent boundary\n layer .\n '
p16
sI17
S'<TITLE>\n remarks on the eddy viscosity in compressible mixing flows .\n '
p17
sI18
S'<TITLE>\n the flow field in the diffuser of a radial compressor .\n '
p18
sI19
S'<TITLE>\n an investigation of the pressure distribution on conical bodies in\n hypersonic flows .\n '
p19
sI20
S'<TITLE>\n generalised-newtonian theory .\n '
p20
sI21
S'<TITLE>\n on heat transfer in slip flow .\n '
p21
sI22
S'<TITLE>\n on slip-flow heat transfer to a flat plate .\n '
p22
sI23
S'<TITLE>\n skin-friction and heat transfer characteristics of\n a laminar boundary layer on a cylinder in axial incompressible\n flow .\n '
p23
sI24
S'<TITLE>\n theory of stagnation point heat transfer in dissociated\n air .\n '
p24
sI25
S'<TITLE>\n inviscid hypersonic flow over blunt-nosed slender bodies .\n '
p25
sI26
S'<TITLE>\n inviscid leading-edge effect in hypersonic flow .\n '
p26
sI27
S'<TITLE>\n newtonian flow theory for slender bodies .\n '
p27
sI28
S'<TITLE>\n a note on the explosion solution of sedov with application\n to the newtonian theory of unsteady hypersonic flow .\n '
p28
sI29
S'<TITLE>\n a simple model study of transient temperature and thermal\n stress distribution due to aerodynamic heating .\n '
p29
sI30
S'<TITLE>\n photo-thermoelastic investigation of transient thermal\n stresses in a multiweb wing structure .\n '
p30
sI31
S'<TITLE>\n thermal buckling of supersonic wing panels .\n '
p31
sI32
S'<TITLE>\n the dynamic motion of a missile descending through\n the atmosphere .\n '
p32
sI33
S'<TITLE>\n the prospects for magneto-aerodynamics .\n '
p33
sI34
S'<TITLE>\n constant-temperature magneto-gasdynamic channel flow .\n '
p34
sI35
S'<TITLE>\n stagnation point of a blunt body in hypersonic flow .\n '
p35
sI36
S'<TITLE>\n supersonic flow around blunt bodies .\n '
p36
sI37
S'<TITLE>\n a new technique for investigating heat transfer and\n surface phenomena under hypersonic flow conditions .\n '
p37
sI38
S'<TITLE>\n on the prediction of mixed subsonic/supersonic pressure\n distributions .\n '
p38
sI39
S'<TITLE>\n on the flow of a sonic stream past an airfoil surface .\n '
p39
sI40
S'<TITLE>\n experiments on boundary layer transition at supersonic\n speeds .\n '
p40
sI41
S'<TITLE>\n on transition experiments at moderate supersonic speeds .\n '
p41
sI42
S'<TITLE>\n the gyroscopic effect of a rigid rotating propeller\n on engine and wing vibration modes .\n '
p42
sI43
S'<TITLE>\n the relation between wall temperature and the effect\n of roughness on boundary layer transition .\n '
p43
sI44
S'<TITLE>\n tip-bluntness effects on cone pressures at m=6.85.\n '
p44
sI45
S'<TITLE>\n an investigation of separated flows, part ii: flow\n in the cavity and heat transfer .\n '
p45
sI46
S'<TITLE>\n some comments on the inversion of certain large matrices .\n '
p46
sI47
S'<TITLE>\n analysis of low-aspect-ratio aircraft structures .\n '
p47
sI48
S'<TITLE>\n supersonic flow at the surface of a circular cone at\n angle of attack .\n '
p48
sI49
S'<TITLE>\n temperature and velocity profiles in the compressible\n laminar boundary layer with arbitrary distribution\n of surface temperature .\n '
p49
sI50
S'<TITLE>\n investigation of laminar boundary layer in compressible\n fluids using the crocco method .\n '
p50
sI51
S'<TITLE>\n theory of aircraft structural models subjected to aerodynamic\n heating and external loads .\n '
p51
sI52
S'<TITLE>\n procedure for calculating flutter at high supersonic\n speed including camber deflections, and comparison\n with experimental results .\n '
p52
sI53
S'<TITLE>\n transition reynolds numbers of separated flows at supersonic\n speeds .\n '
p53
sI54
S'<TITLE>\n method for calculation of compressible laminar boundary\n layer characteristics in axial pressure gradient with\n zero heat transfer .\n '
p54
sI55
S'<TITLE>\n separation, stability and other properties of compressible\n laminar boundary layer with pressure gradient and heat\n transfer .\n '
p55
sI56
S'<TITLE>\n an analysis of the applicability of the hypersonic\n similarity law to the study of the flow about bodies\n of revolution at zero angle of attack .\n '
p56
sI57
S'<TITLE>\n applicability of the hypersonic similarity rule to\n pressure distributions which include the effects of\n rotation for bodies of revolution at zero angle of\n attack .\n '
p57
sI58
S'<TITLE>\n pressure measurements on sharp and blunt 5 and 15 half-angle\n cones at mach number 3.86 and angles of attack to\n 100 .\n '
p58
sI59
S'<TITLE>\n tables of exact laminar-boundary layer solutions when\n the wall is porous and fluid properties are variable .\n '
p59
sI60
S'<TITLE>\n estimation forces and moments due to rolling for several\n slender tail configurations at supersonic speeds .\n '
p60
sI61
S'<TITLE>\n on flow of electrically conducting fluids over a flat\n plate in the presence of a transverse magnetic field .\n '
p61
sI62
S'<TITLE>\n similar solutions for the compressible laminar boundary\n layer with heat transfer and pressure gradient .\n '
p62
sI63
S'<TITLE>\n hypersonic viscous flow over slender cones .\n '
p63
sI64
S'<TITLE>\n unsteady oblique interaction of a shock wave with plane\n disturbances .\n '
p64
sI65
S'<TITLE>\n convection of a pattern of vorticity through a shock\n wave .\n '
p65
sI66
S'<TITLE>\n some effects of joint conductivity on the temperature\n and thermal stresses in aerodynamically heated skin-stiffener\n combinations .\n '
p66
sI67
S'<TITLE>\n dynamic stability of vehicles traversing ascending\n or descending paths through the atmosphere .\n '
p67
sI68
S'<TITLE>\n some aspects of air-helium simulation and hypersonic\n approximations .\n '
p68
sI69
S'<TITLE>\n predicted shock envelopes about two types of vehicles\n at large angles of attack .\n '
p69
sI70
S'<TITLE>\n a study of flow changes associated with airfoil section\n drag rise at supercritical speeds .\n '
p70
sI71
S'<TITLE>\n laminar boundary layer behind shock advancing into\n stationary fluid .\n '
p71
sI72
S'<TITLE>\n boundary layer behind shock or thin expansion wave\n moving into stationary fluid .\n '
p72
sI73
S'<TITLE>\n investigation of the stability of the laminar boundary\n layer in a compressible fluid .\n '
p73
sI74
S'<TITLE>\n an experimental study of the turbulen coundary layer\n on a shock tube wall .\n '
p74
sI75
S'<TITLE>\n studies of structural failure due to acoustic loading .\n '
p75
sI76
S'<TITLE>\n flight measurement of wall pressure fluctuations and\n boundary-layer turbulence .\n '
p76
sI77
S'<TITLE>\n a comparative analysis of the performance of long range\n hypervelocity vehicles .\n '
p77
sI78
S'<TITLE>\n an analytical treatment of aircraft propeller precession\n instability .\n '
p78
sI79
S'<TITLE>\n effects of extreme surface cooling on boundary layer\n transition .\n '
p79
sI80
S'<TITLE>\n effect of distributed three-dimensional roughness and\n surface cooling on boundary layer transition and lateral\n spread of turbulence at supersonic speeds .\n '
p80
sI81
S'<TITLE>\n compressible laminar flow and heat transfer about a\n rotating isothermal disk .\n '
p81
sI82
S'<TITLE>\n theoretical investigation of the ablation of a glass-type\n heat protection shield of varied material properties\n at the stagnation point of a re-entering irbm .\n '
p82
sI83
S'<TITLE>\n discussion of solar proton events and manned space\n flights .\n '
p83
sI84
S'<TITLE>\n experimental investigation of the downstream influence\n of stagnation point mass transfer .\n '
p84
sI85
S'<TITLE>\n on trails of axisymmetric hypersonic blunt bodies flying\n through the atmosphere .\n '
p85
sI86
S'<TITLE>\n inviscid-incompressible flow theory of static peripheral\n jets in proximity to the ground .\n '
p86
sI87
S'<TITLE>\n free-convection magnetohydrodynamic flow past a porous flat plate .\n '
p87
sI88
S'<TITLE>\n magnetohydrodynamic free-convection pipe flow .\n '
p88
sI89
S'<TITLE>\n an investigation of separated flows, part i: the pressure\n field .\n '
p89
sI90
S'<TITLE>\n periodic temperature distributions in a two-layer composite\n slab .\n '
p90
sI91
S'<TITLE>\n periodic temperature distribution in a two-layer composite slab .\n '
p91
sI92
S'<TITLE>\n the analysis of redundant structures by the use of\n high-speed digital computers .\n '
p92
sI93
S'<TITLE>\n the supersonic blunt body problem - review and extensions .\n '
p93
sI94
S'<TITLE>\n the transverse curvature effect in compressible axially\n symmetric laminar boundary layer flow .\n '
p94
sI95
S'<TITLE>\n temperature distribution and thermal stresses in a\n model of a supersonic wing .\n '
p95
sI96
S'<TITLE>\n review of published data on the effect of roughness on transition from\n laminar to turbulent flow .\n '
p96
sI97
S'<TITLE>\n a mixing theory for the interaction between dissipative\n flows and nearly isentropic streams .\n '
p97
sI98
S'<TITLE>\n heat transfer by laminar flow to a rotating plate .\n '
p98
sI99
S'<TITLE>\n the fundamentals of the statistical theory of turbulence .\n '
p99
sI100
S'<TITLE>\n vibration isolation of aircraft power plants .\n '
p100
sI101
S'<TITLE>\n laminar heat transfer over blunt-nosed bodies at hypersonic flight\n speeds .\n '
p101
sI102
S'<TITLE>\n advantages and limitations of models .\n '
p102
sI103
S'<TITLE>\n theory of mixing and chemical reaction in the opposed\n jet diffusion flame .\n '
p103
sI104
S'<TITLE>\n similar solutions of a free convection boundary layer\n equation for an electrically conducting fluid .\n '
p104
sI105
S'<TITLE>\n the asymptotic boundary layer on a circular cylinder\n in axial incompressible flow .\n '
p105
sI106
S'<TITLE>\n the transverse potential flow past a body of revolution .\n '
p106
sI107
S'<TITLE>\n on the mixing of two parallel streams .\n '
p107
sI108
S'<TITLE>\n properties of the confluent hypergeometric function .\n '
p108
sI109
S'<TITLE>\n the production of uniform shear flow in a wind tunnel .\n '
p109
sI110
S'<TITLE>\n dynamics of a dissociating gas .\n '
p110
sI111
S'<TITLE>\n the laminar boundary layer equation: a method of solution\n by means of an automatic computer .\n '
p111
sI112
S'<TITLE>\n steady motion of conducting fluids in pipes under transverse\n magnetic fields .\n '
p112
sI113
S'<TITLE>\n acoustical signal detection in turbulent airflow .\n '
p113
sI114
S'<TITLE>\n response of plates to a decaying and convecting randon\n pressure field .\n '
p114
sI115
S'<TITLE>\n on turbulent lubrication .\n '
p115
sI116
S'<TITLE>\n the elliptic cylinder in a shear flow with hyperbolic\n velocity profile .\n '
p116
sI117
S'<TITLE>\n the motion of a viscous liquid past a paraboloid .\n '
p117
sI118
S'<TITLE>\n the transonic flow of a compressible fluid through\n an axially symmetrical nozzle .\n '
p118
sI119
S'<TITLE>\n conduction of fluctuating heat flow in a wall consisting\n of many layers .\n '
p119
sI120
S'<TITLE>\n measurement of convective heat transfer by means of\n the reynolds analogy .\n '
p120
sI121
S'<TITLE>\n a theory for base pressures in transonic and supersonic\n flow .\n '
p121
sI122
S'<TITLE>\n a simplified approximate method for the calculation of the pressure\n around conical bodies of arbitrary shape in supersonic and hypersonic\n flow .\n '
p122
sI123
S'<TITLE>\n the downstream influence of mass transfer at the nose\n of a slender cone .\n '
p123
sI124
S'<TITLE>\n a summary of the supersonic pressure drag of bodies\n of revolution .\n '
p124
sI125
S'<TITLE>\n measurements of skin friction of the compressible turbulent\n boundary layer on a cone with foreign gas injection .\n '
p125
sI126
S'<TITLE>\n an investigation of two-dimensional supersonic base\n pressures .\n '
p126
sI127
S'<TITLE>\n supersonic axially symmetric nozzles .\n '
p127
sI128
S'<TITLE>\n effects of free stream vorticity on the behaviour of\n a viscous boundary layer .\n '
p128
sI129
S'<TITLE>\n an investigation of the noise produced by a subsonic air jet .\n '
p129
sI130
S'<TITLE>\n the behaviour of non-linear systems .\n '
p130
sI131
S'<TITLE>\n two-dimensional jet mixing of a compressible fluid .\n '
p131
sI132
S'<TITLE>\n viscosity effects in sound waves of finite amplitude:\n in survey in mechanics .\n '
p132
sI133
S'<TITLE>\n some effects of surface curvature on laminar boundary\n layer flow .\n '
p133
sI134
S'<TITLE>\n note on an interaction between the boundary layer and the inviscid\n flow .\n '
p134
sI135
S'<TITLE>\n the calculation of wall shearing stress from heat-transfer measurements\n in compressible flows .\n '
p135
sI136
S'<TITLE>\n recent developments in rocket nozzle configurations .\n '
p136
sI137
S'<TITLE>\n the generation of sound by aerodynamic means .\n '
p137
sI138
S'<TITLE>\n wakes in axial compressors .\n '
p138
sI139
S'<TITLE>\n viscous effects on pitot tubes at low speeds .\n '
p139
sI140
S'<TITLE>\n the determination of turbulent skin friction by means\n of pitot tubes .\n '
p140
sI141
S'<TITLE>\n free-flight techniques for high speed aerodynamic research .\n '
p141
sI142
S'<TITLE>\n the problem of aerodynamic heating .\n '
p142
sI143
S'<TITLE>\n interplanetary orbits .\n '
p143
sI144
S'<TITLE>\n heat flow in composite slabs .\n '
p144
sI145
S'<TITLE>\n skin friction in the laminar boundary layer in compressible\n flow .\n '
p145
sI146
S'<TITLE>\n supersonic flow past slender bodies with discontinuous\n profile slope .\n '
p146
sI147
S'<TITLE>\n supersonic flow past slender pointed wings with ?similar?\n cross sections at zero lift .\n '
p147
sI148
S'<TITLE>\n on displacement thickness .\n '
p148
sI149
S'<TITLE>\n expansions at small reynolds number for the flow past\n a sphere and a circular cylinder .\n '
p149
sI150
S'<TITLE>\n integration of the boundary layer equations .\n '
p150
sI151
S'<TITLE>\n the generation of noise by isotropic turbulence .\n '
p151
sI152
S'<TITLE>\n on the flow of compressible fluid past an obstacle .\n '
p152
sI153
S'<TITLE>\n on the steady motion of viscous, incompressible fluids,\n with particular reference to a variation principle .\n '
p153
sI154
S'<TITLE>\n velocity and temperature distributions in the turbulent\n wake behind a heated body of revolution .\n '
p154
sI155
S'<TITLE>\n on the solution of the laminar boundary layer equations .\n '
p155
sI156
S'<TITLE>\n the effect of shallow water on wave resistance .\n '
p156
sI157
S'<TITLE>\n the hodographic transformation in transonic flow .\n '
p157
sI158
S'<TITLE>\n temperature charts for induction and constant temperature\n heating .\n '
p158
sI159
S'<TITLE>\n numerical methods for transient heat flow .\n '
p159
sI160
S'<TITLE>\n approximate analytical solutions for hypersonic flow\n past slender power-law bodies .\n '
p160
sI161
S'<TITLE>\n supersonic flow past a family of blunt symmetric bodies .\n '
p161
sI162
S'<TITLE>\n nearly circular transfer trajectories for descending\n satellites .\n '
p162
sI163
S'<TITLE>\n an analysis of the corridor and guidance requirements\n for supercircular entry planetary atmospheres .\n '
p163
sI164
S'<TITLE>\n an approximate analytical method for studying entry\n into planetary atospheres .\n '
p164
sI165
S'<TITLE>\n skin-friction measurements in incompressible flow.\n '
p165
sI166
S'<TITLE>\n flow of chemically reacting gas mixtures .\n '
p166
sI167
S'<TITLE>\n linearized flow of a dissociating gas .\n '
p167
sI168
S'<TITLE>\n heat conduction through a gas with one inert internal\n model .\n '
p168
sI169
S'<TITLE>\n on the sudden contact between a hot gas and a cold solid .\n '
p169
sI170
S'<TITLE>\n the interaction of a reflected shock wave with the\n boundary layer in a shock tube .\n '
p170
sI171
S'<TITLE>\n a low density wind tunnel study of shock wave structure\n and relaxation phenomena in gases .\n '
p171
sI172
S'<TITLE>\n some aerodynamic considerations of nozzle afterbody\n combination .\n '
p172
sI173
S'<TITLE>\n the effect of a central jet on the base pressure of\n a cylindrical afterbody in a supersonic stream .\n '
p173
sI174
S'<TITLE>\n investigation at supersonic speeds of the effects of\n jet mach number and divergence angle of the nozzle\n upon the pressure of the base annulus of a body of\n revolution .\n '
p174
sI175
S'<TITLE>\n experiments with static tubes in a supersonic airstream .\n '
p175
sI176
S'<TITLE>\n base pressure at subsonic speeds in the presence of\n a supersonic jet .\n '
p176
sI177
S'<TITLE>\n the mixing of free axially-symmetrical jets of mach number 1.40 .\n '
p177
sI178
S'<TITLE>\n on full dispersed shock waves in carbon dioxide .\n '
p178
sI179
S'<TITLE>\n an analysis of base pressure at supersonic speeds and\n comparison with experiment .\n '
p179
sI180
S'<TITLE>\n boundary layer over a flat plate in presence of shear\n flow .\n '
p180
sI181
S'<TITLE>\n some problems on heat conduction in stratiform bodies .\n '
p181
sI182
S'<TITLE>\n effect of roughness on transition in supersonic flow .\n '
p182
sI183
S'<TITLE>\n properties of impact pressure probes in free molecule\n flow .\n '
p183
sI184
S'<TITLE>\n scale models for thermo-aeroelastic research .\n '
p184
sI185
S'<TITLE>\n some possibilities of using gas mixtures other than in\n aerodynamic research .\n '
p185
sI186
S'<TITLE>\n base pressure in supersonic flow .\n '
p186
sI187
S'<TITLE>\n investigation of separated flows in supersonic and subsonic\n streams with emphasis on the effect of transition .\n '
p187
sI188
S'<TITLE>\n an analysis of base pressure at supersonic velocities and\n comparison with experiment .\n '
p188
sI189
S'<TITLE>\n experimental investigation of base pressure on blunt-trailing-edge\n wings of supersonic velocities .\n '
p189
sI190
S'<TITLE>\n on magnetohydrodynamic shock waves .\n '
p190
sI191
S'<TITLE>\n a theory for the core of a leading edge vortex .\n '
p191
sI192
S'<TITLE>\n on the hypersonic viscous flow past slender bodies\n of revolution .\n '
p192
sI193
S'<TITLE>\n a study of inviscid flow about air foils at high supersonic\n speeds .\n '
p193
sI194
S'<TITLE>\n general theory of airfoil sections having arbitrary\n shape or pressure distribution .\n '
p194
sI195
S'<TITLE>\n correlation of theoretical and photo-thermoelastic\n results on thermal stresses in idealized wing structure .\n '
p195
sI196
S'<TITLE>\n pressure distributions . axially symmetric bodies in\n oblique flow .\n '
p196
sI197
S'<TITLE>\n pressure distributions on three bodies of revolution\n to determine the effect of reynolds number up to and\n including the transonic speed range .\n '
p197
sI198
S'<TITLE>\n investigation of a systematic group of naca 1 - series\n cowlings with and without spinners .\n '
p198
sI199
S'<TITLE>\n measurement of two dimensional derivatives on a wing-aileron-tab\n system .\n '
p199
sI200
S'<TITLE>\n calculation of derivatives for a cropped delta wing\n with subsonic leading edges oscillating in a supersonic\n airstream .\n '
p200
sI201
S'<TITLE>\n supersonic flow past oscillating airfoils including\n nonlinear thickness effects .\n '
p201
sI202
S'<TITLE>\n aircraft flutter .\n '
p202
sI203
S'<TITLE>\n calculated velocity distributions and force derivatives\n for a series of high-speed aerofoils .\n '
p203
sI204
S'<TITLE>\n a study of the application of airfoil section data\n to the estimation of the high subsonic speed characteristics\n of swept wings .\n '
p204
sI205
S'<TITLE>\n a correlation of airfoil section data with the aerodynamic\n loads measured on a 45 sweptback wing at subsonic mach\n numbers .\n '
p205
sI206
S'<TITLE>\n the applications of the polygon method to the calculation\n of the compressible subsonic flow round two-dimensional\n profiles .\n '
p206
sI207
S'<TITLE>\n laminar boundary layer oscillations and transition\n on a flat plate .\n '
p207
sI208
S'<TITLE>\n the hall effect in the viscous flow of ionized gas\n between parallel plates under transverse magnetic field .\n '
p208
sI209
S'<TITLE>\n boundary layer induced noise in the interior of aircraft .\n '
p209
sI210
S'<TITLE>\n propeller in yaw .\n '
p210
sI211
S'<TITLE>\n effect of slight blunting of leading edge of an immersed\n body on the flow around it at hypersonic speed .\n '
p211
sI212
S'<TITLE>\n theory and tunnel tests of rotor blade for supersonic\n turbines .\n '
p212
sI213
S'<TITLE>\n the performance of supersonic turbine nozzles .\n '
p213
sI214
S'<TITLE>\n on the testing of supersonic compressor cascades .\n '
p214
sI215
S'<TITLE>\n the test performance of highly loaded turbine stages\n designed for high pressure ratio .\n '
p215
sI216
S'<TITLE>\n the supersonic axial flow compressor .\n '
p216
sI217
S'<TITLE>\n flow pattern in a converging-diverging nozzle .\n '
p217
sI218
S'<TITLE>\n intensity, scale and spectra of turbulence in mixing\n region of free subsonic jet .\n '
p218
sI219
S'<TITLE>\n on the strength distribution of noise sources along\n a jet .\n '
p219
sI220
S'<TITLE>\n a general purpose analogue correlator for the analysis of\n random noise signals .\n '
p220
sI221
S'<TITLE>\n a theoretical study of annular supersonic nozzles .\n '
p221
sI222
S'<TITLE>\n the flow over delta wings at low speeds with leading\n edge separation .\n '
p222
sI223
S'<TITLE>\n a note on the theory of the stanton tube .\n '
p223
sI224
S'<TITLE>\n quasi-cylindrical surfaces with prescribed loadings\n in the linearised theory of supersonic flow .\n '
p224
sI225
S'<TITLE>\n elliptic cones alone and with wings at supersonic speeds .\n '
p225
sI226
S'<TITLE>\n aerofoil theory of a flat delta wing at supersonic\n speeds .\n '
p226
sI227
S'<TITLE>\n a technique for improving the predictions of linearised\n theory on the drag of straight edge wings .\n '
p227
sI228
S'<TITLE>\n navier-stokes solutions at large distances from a finite body .\n '
p228
sI229
S'<TITLE>\n interference between the wings and tail surfaces of\n a combination of slender body, cruciform wings and\n cruciform tail set at both incidence and yaw .\n '
p229
sI230
S'<TITLE>\n interference between the wings and tail plane of a\n slender wing-body tailplane combination .\n '
p230
sI231
S'<TITLE>\n practical calculation of second-order supersonic flow\n past non-lifting bodies of revolution .\n '
p231
sI232
S'<TITLE>\n accuracy of approximate methods for predicting pressure\n on pointed non-lifting bodies of revolution in supersonic\n flow .\n '
p232
sI233
S'<TITLE>\n the theoretical wave drag of some bodies of revolution .\n '
p233
sI234
S'<TITLE>\n a second order shock-expansion method applicable to\n bodies of revolution near zero lift .\n '
p234
sI235
S'<TITLE>\n on the minimisation and numerical evaluation of wave\n drag .\n '
p235
sI236
S'<TITLE>\n criteria for thermodynamic equilibrium in gas flow .\n '
p236
sI237
S'<TITLE>\n a compressor routine test code .\n '
p237
sI238
S'<TITLE>\n on a determination of the pitot-static tube factor\n at low reynolds numbers, with special reference to\n the measurement of low air speeds .\n '
p238
sI239
S'<TITLE>\n design and calibration at low speeds of a static tube\n and a pitot-static tube with semi-ellipsoidal nose\n shapes .\n '
p239
sI240
S'<TITLE>\n a theoretical analysis of heat transfer in regions of separated flow\n '
p240
sI241
S'<TITLE>\n laminar mixing of a non-uniform stream with a fluid\n at rest .\n '
p241
sI242
S'<TITLE>\n an approximate theory of base pressure in two dimensional\n flow at supersonic speeds .\n '
p242
sI243
S'<TITLE>\n investigation with an interferometer of the turbulent\n mixing of a free supersonic jet .\n '
p243
sI244
S'<TITLE>\n an improved smoke generator for use in the visualisation\n of airflow, particularly boundary layer flow at high\n reynolds numbers .\n '
p244
sI245
S'<TITLE>\n the ground effect on the jet flap in two dimensions .\n '
p245
sI246
S'<TITLE>\n the design of minimum drag tip fins . with an appendix\n - on the conformal transformation of a wing with a\n fin .\n '
p246
sI247
S'<TITLE>\n the calculation of the pressure distribution on thick\n wings of small aspect ratio at zero lift in subsonic\n flow .\n '
p247
sI248
S'<TITLE>\n the application of lighthill formula for numerical\n calculation of pressure distributions on bodies of\n revolution at supersonic speed and zero angle of attack .\n '
p248
sI249
S'<TITLE>\n formulae for the computation of the functions employed\n for calculating the velocity distribution about a given\n aerofoil .\n '
p249
sI250
S'<TITLE>\n pressure distributions at zero lift for delta wings\n with rhombic cross sections .\n '
p250
sI251
S'<TITLE>\n a collection of longitudinal stability derivatives\n of wings at supersonic speeds .\n '
p251
sI252
S'<TITLE>\n an investigation of interference effects on similar models of\n different size in various transonic tunnels in the u.k. .\n '
p252
sI253
S'<TITLE>\n on the ground level disturbance from large aircraft\n flying at supersonic speeds .\n '
p253
sI254
S'<TITLE>\n boundary layers with suction and injection . a review\n of published work on skin friction .\n '
p254
sI255
S'<TITLE>\n an approximate solution of the turbulent boundary layer\n equations in incompressible and compressible .\n '
p255
sI256
S'<TITLE>\n an experimental study of the glancing interaction between\n a shock wave and a turbulent boundary layer .\n '
p256
sI257
S'<TITLE>\n on turbulen flow between parallel plates .\n '
p257
sI258
S'<TITLE>\n the effect of turbulence on slider bearing lubrication .\n '
p258
sI259
S'<TITLE>\n second order theory for unsteady supersonic flow\n past slender pointed bodies of revolution .\n '
p259
sI260
S'<TITLE>\n a critical review of skin friction and heat transfer\n solutions of the laminar boundary layer of a flat plate .\n '
p260
sI261
S'<TITLE>\n experiments on axi-symmetric boundary layers along\n a long cylinder in incompressible flow .\n '
p261
sI262
S'<TITLE>\n the formation of a blast wave by a very intense explosion .\n '
p262
sI263
S'<TITLE>\n cylindrical shock waves produced by instantaneous energy\n release .\n '
p263
sI264
S'<TITLE>\n asymptotic solution of the two dimensional oscillating\n aerofoil problem for high subsonic mach numbers .\n '
p264
sI265
S'<TITLE>\n some instabilities arising from the interaction between\n shock waves and boundary layer .\n '
p265
sI266
S'<TITLE>\n exact solution of the neumann problem . calculation\n for non- circulatory plane and axially symmetric flows\n about or within arbitrary boundaries .\n '
p266
sI267
S'<TITLE>\n steady and transient free convection of an electrically\n conducting fluid from a vertical plate in the presence\n of a magnetic field .\n '
p267
sI268
S'<TITLE>\n several magnetohydrodynamic free-convection solutions .\n '
p268
sI269
S'<TITLE>\n on a laminar free-convection flow and heat transfer\n of electrically conducting fluid on a vertical flat\n plate in the presence of a transverse magnetic field .\n '
p269
sI270
S'<TITLE>\n on combined free and forced convection laminar magnetohydrodynamic\n flow and heat transfer in channels with transverse\n magnetic field .\n '
p270
sI271
S'<TITLE>\n an experimental test of compressibility transformation\n for turbulent boundary layer .\n '
p271
sI272
S'<TITLE>\n oscillatory aerodynamic coefficients for a unified supersonic\n hypersonic strip theory .\n '
p272
sI273
S'<TITLE>\n flow past slender blunt bodies - a review and extension .\n '
p273
sI274
S'<TITLE>\n analysis of quartz and teflon shields for a particular\n re-entry mission .\n '
p274
sI275
S'<TITLE>\n the effect of lift on entry corridor depth and guidance\n requirements for the return lunar flight .\n '
p275
sI276
S'<TITLE>\n reaction tests of turbine nozzles for supersonic velocities .\n '
p276
sI277
S'<TITLE>\n study of flow conditions and deflection angle at exit\n of two-dimensional cascade of turbine rotor blades\n at critical and supercritical pressure ratios .\n '
p277
sI278
S'<TITLE>\n on source and vortex distributions in the linearised\n theory of steady supersonic flow .\n '
p278
sI279
S'<TITLE>\n supersonic drag calculations for a cylindrical shell\n wing of semicircular cross section combined with a\n central body of revolution .\n '
p279
sI280
S'<TITLE>\n the surface oil flow technique as used in high speed\n wind tunnels in the united kingdom .\n '
p280
sI281
S'<TITLE>\n higher order approximations for relaxation oscillations .\n '
p281
sI282
S'<TITLE>\n jet effects on base pressure of conical afterbodies\n at mach 1. 91 and 3. 12 .\n '
p282
sI283
S'<TITLE>\n laminar heat transfer around blunt bodies in dissociated\n air .\n '
p283
sI284
S'<TITLE>\n the divergence of supersonic wings including chordwise\n bending .\n '
p284
sI285
S'<TITLE>\n on the flutter of panels at high mach numbers .\n '
p285
sI286
S'<TITLE>\n effect of roll on dynamic instability of symmetric\n missiles .\n '
p286
sI287
S'<TITLE>\n some theoretical low-speed loading characteristics\n of swept wings in roll and sideslip .\n '
p287
sI288
S'<TITLE>\n the rolling up of the trailing vortex sheet and its\n effect on the downwash behind wings .\n '
p288
sI289
S'<TITLE>\n a theoretical study of the aerodynamics of slender\n cruciform-wing arrangements and their wakes .\n '
p289
sI290
S'<TITLE>\n dynamic stability of a missile in rolling flight .\n '
p290
sI291
S'<TITLE>\n sweepback effects in the turbulent boundary-layer shock-wave\n interaction .\n '
p291
sI292
S'<TITLE>\n rapid laminar boundary layer calculations by piece-wise\n application of similar solutions .\n '
p292
sI293
S'<TITLE>\n recent studies on the effect of cooling on boundary\n layer transition at mach 4.\n '
p293
sI294
S'<TITLE>\n an investigation of laminar transitional and turbulent\n heat transfer on blunt-nosed bodies in hypersonic flow .\n '
p294
sI295
S'<TITLE>\n a note on transitional heat transfer under hypersonic conditions .\n '
p295
sI296
S'<TITLE>\n notes on waves through gases at pressures small compared\n with the magnetic pressure, with applications to upper\n atmosphere aerodynamics .\n '
p296
sI297
S'<TITLE>\n compressibility effects in magneto-aerodynamic flows\n past thin bodies .\n '
p297
sI298
S'<TITLE>\n incompressible wedge flows of an electrically conducting\n viscous fluid in the presence of a magnetic field .\n '
p298
sI299
S'<TITLE>\n magnetohydrodynamic flow past a semi-infinite plate .\n '
p299
sI300
S'<TITLE>\n on a particular class of similar solutions of the equations\n of motion and energy of a viscous fluid .\n '
p300
sI301
S'<TITLE>\n approximate design of sharp-cornered supersonic nozzles .\n '
p301
sI302
S'<TITLE>\n approximations for the thermodynamic and transport properties of high\n temperature air .\n '
p302
sI303
S'<TITLE>\n effect of variable heat recombination on stagnation\n point heat transfer .\n '
p303
sI304
S'<TITLE>\n first-order approach to a strong interaction problem\n in hypersonic flow over an insulated flat plate .\n '
p304
sI305
S'<TITLE>\n hypersonic strong viscous interaction on a flat plate\n with surface mass transfer .\n '
p305
sI306
S'<TITLE>\n second approximation to laminar compressible boundary\n layer on flat plate in slip flow .\n '
p306
sI307
S'<TITLE>\n an approximate solution of hypersonic laminar boundary\n layer equations and its application .\n '
p307
sI308
S'<TITLE>\n on the hypersonic viscous flow past a flat plate with\n suction or injection .\n '
p308
sI309
S'<TITLE>\n on the motion of a flat plate at high speed in a viscous\n compressible fluid, ii, steady motion .\n '
p309
sI310
S'<TITLE>\n hypersonic viscous flow over a flat plate\n '
p310
sI311
S'<TITLE>\n a method for predicting the onset of buffeting and other separation\n effects from wind tunnel tests on rigid models .\n '
p311
sI312
S'<TITLE>\n chordwise pressure distributions over several naca\n 16 series airfoils at transonic mach numbers up to\n 1.25 .\n '
p312
sI313
S'<TITLE>\n on alternative forms for the basic equations of transonic\n flow theory .\n '
p313
sI314
S'<TITLE>\n simplified method for determination of the critical\n height of distributed roughness particles for boundary\n layer transition at mach numbers from 0 to 5.\n '
p314
sI315
S'<TITLE>\n scale effects at high subsonic and transonic speeds\n and methods for fixing transition in model experiments .\n '
p315
sI316
S'<TITLE>\n the occurrence and development of boundary layer separations at high\n incidences and high speeds .\n '
p316
sI317
S'<TITLE>\n non-equilibrium flow of an ideal dissociating gas .\n '
p317
sI318
S'<TITLE>\n inviscid hypersonic flow past blunt bodies .\n '
p318
sI319
S'<TITLE>\n propagation of weak disturbances in a gas subject to\n relaxation effects .\n '
p319
sI320
S'<TITLE>\n comment on improved numerical solution of the blasius problem with\n three-point boundary conditions .\n '
p320
sI321
S'<TITLE>\n improved numerical solution of the blasius problem with three-point\n boundary conditions .\n '
p321
sI322
S'<TITLE>\n on the numerical solution of the blasius problem with three-point\n boundary conditions .\n '
p322
sI323
S'<TITLE>\n vorticity interaction at an axisymmetric stagnation\n point in a viscous incompressible fluid .\n '
p323
sI324
S'<TITLE>\n vorticity effect on the stagnation point flow of a viscous incompressible\n fluid .\n '
p324
sI325
S'<TITLE>\n heat transfer to constant property laminar boundary\n layer flows with power function free stream velocity\n and wall temperature variation .\n '
p325
sI326
S'<TITLE>\n forst-order slip effects on the compressible laminar\n boundary layer over a slender body of revolution in\n axial flow .\n '
p326
sI327
S'<TITLE>\n on local flat plate similarity in the hypersonic boundary\n layer .\n '
p327
sI328
S'<TITLE>\n the boundary layer near the stagnation point in hypersonic\n flow past a sphere .\n '
p328
sI329
S'<TITLE>\n various aerodynamic characteristics in hypersonic rarefied\n gas flow .\n '
p329
sI330
S'<TITLE>\n taylor instability of finite surface waves .\n '
p330
sI331
S'<TITLE>\n effects of surface tension and viscosity on taylor\n instability .\n '
p331
sI332
S'<TITLE>\n similitude of hypersonic real-gas flows over slender\n bodies with blunted noses .\n '
p332
sI333
S'<TITLE>\n boundary-layer interaction on a yawed infinite wing in hypersonic\n flow .\n '
p333
sI334
S'<TITLE>\n influence of the leading-edge shock wave on the laminar boundary layer\n at hypersonic speeds .\n '
p334
sI335
S'<TITLE>\n the interaction between boundary layer and shock waves in transonic\n flow .\n '
p335
sI336
S'<TITLE>\n simplified laminar boundary layer calculations for\n bodies of revolution and for yawed wings .\n '
p336
sI337
S'<TITLE>\n boundary layer transition with gas injection .\n '
p337
sI338
S'<TITLE>\n mass transfer cooling at mach number 4. 8.\n '
p338
sI339
S'<TITLE>\n experimental evaluation of heat transfer with transpiration\n cooling in a turbulent boundary layer at m=3 .2.\n '
p339
sI340
S'<TITLE>\n analysis of effects of diffusion of a foreign gas into\n the laminar boundary layer of a supersonic flow of\n air in a tube .\n '
p340
sI341
S'<TITLE>\n the analytical design of an axially symmetric laval\n nozzle for a parallel and uniform jet .\n '
p341
sI342
S'<TITLE>\n effect of diffusion fields on the laminar boundary\n layer .\n '
p342
sI343
S'<TITLE>\n transpiration cooling experiments in a turbulent boundary\n layer at m=3 .\n '
p343
sI344
S'<TITLE>\n some experimental techniques in mass transfer cooling .\n '
p344
sI345
S'<TITLE>\n the interaction of shock waves with boundary layer\n on a flat surface .\n '
p345
sI346
S'<TITLE>\n measurements of turbulent friction on a smooth flat plate in supersonic\n '
p346
sI347
S'<TITLE>\n boundary layer measurements in hypersonic flow .\n '
p347
sI348
S'<TITLE>\n turbulent boundary layer in compressible fluids .\n '
p348
sI349
S'<TITLE>\n numerical solution of the boundary layer equations\n without similarity assumptions .\n '
p349
sI350
S'<TITLE>\n laminar jet mixing of two compressible fluids with heat release .\n '
p350
sI351
S'<TITLE>\n thermal distributions in jeffrey-hamel flows between nonparallel plane\n walls .\n '
p351
sI352
S'<TITLE>\n on heat transfer over a sweat-cooled surface in laminar\n compressible flow with a pressure gradient .\n '
p352
sI353
S'<TITLE>\n the effect of helium injection at an axially symmetric stagnation\n point .\n '
p353
sI354
S'<TITLE>\n laminar heat-transfer and pressure measurements over blunt-nosed\n cones at large angle of attack .\n '
p354
sI355
S'<TITLE>\n the injection of air into the dissociated hypersonic laminar boundary\n layer .\n '
p355
sI356
S'<TITLE>\n on optimum nose curves for missiles in the super-aerodynamic\n regime .\n '
p356
sI357
S'<TITLE>\n optimum nose shapes for missiles in the super-aerodynamic\n region .\n '
p357
sI358
S'<TITLE>\n on the model of the free shock separation, turbulent\n boundary layer .\n '
p358
sI359
S'<TITLE>\n note on the hypersonic similarity law for an unyawed\n cone .\n '
p359
sI360
S'<TITLE>\n lift on inclined bodies of revolution in hypersonic flow .\n '
p360
sI361
S'<TITLE>\n the flow of a viscous liquid past a flat plate at small\n reynolds number .\n '
p361
sI362
S'<TITLE>\n three-dimensional effect of flutter in a real fluid .\n '
p362
sI363
S'<TITLE>\n an alternative formulation of the problem of flutter\n in real fluids .\n '
p363
sI364
S'<TITLE>\n a method for analysing the insulating properties of\n the laminar compressible boundary layer .\n '
p364
sI365
S'<TITLE>\n the homogeneous boundary layer at an axisymmetric stagnation\n point with large rates of injection .\n '
p365
sI366
S'<TITLE>\n helium injection into the boundary layer at an axisymmetric\n stagnation point .\n '
p366
sI367
S'<TITLE>\n control system and analysis and design via the second method of\n lyapunov .\n '
p367
sI368
S'<TITLE>\n some problems of polar missile control .\n '
p368
sI369
S'<TITLE>\n an approximate solution of the supersonic blunt body                   \n problem for prescribed arbitrary axisymmetric shapes .                 \n '
p369
sI370
S'<TITLE>\n theoretical pressure distribution on a hemisphere-cylinder\n combination .\n '
p370
sI371
S'<TITLE>\n note on tip-bluntness effects in the supersonic and\n hypersonic regimes .\n '
p371
sI372
S'<TITLE>\n an experimental investigation of flow about simple\n blunt bodies at a nominal mach number of 5. 8.\n '
p372
sI373
S'<TITLE>\n the generalized expansion method and its application\n to bodies travelling at high supersonic airspeeds .\n '
p373
sI374
S'<TITLE>\n an investigation of optimum zoom climb techniques .\n '
p374
sI375
S'<TITLE>\n steady flow in the laminar boundary layer of a gas .\n '
p375
sI376
S'<TITLE>\n transformation between compressible and incompressible\n boundary layer equations .\n '
p376
sI377
S'<TITLE>\n a turbulent analog of the stewartson-illingworth transformation .\n '
p377
sI378
S'<TITLE>\n engineering relations for friction and heat transfer to surfaces in high\n  velocity flow .\n '
p378
sI379
S'<TITLE>\n reverse flow and variational theorems for lifting surfaces\n in nonstationary compressible flow .\n '
p379
sI380
S'<TITLE>\n effect of quasi-steady air forces on incompressible\n bending-torsion flutter .\n '
p380
sI381
S'<TITLE>\n the axisymmetric boundary layer on a long thin cylinder .\n '
p381
sI382
S'<TITLE>\n a note on the laminar boundary layer on a circular cylinder in\n axial incompressible flow .\n '
p382
sI383
S'<TITLE>\n integration of the boundary layer equations for a plane in compressible\n flow with heat transfer .\n '
p383
sI384
S'<TITLE>\n application of second-order shock-expansion theory\n to several types of bodies of revolution .\n '
p384
sI385
S'<TITLE>\n on a generalised porous-wall ?couette type? flow .\n '
p385
sI386
S'<TITLE>\n a generalised porous-wall ?couette type? flow .\n '
p386
sI387
S'<TITLE>\n heat transfer for laminar flow in an annulus with porous\n wall .\n '
p387
sI388
S'<TITLE>\n the pressure gradient induced by shear flow past a\n flat plate .\n '
p388
sI389
S'<TITLE>\n simple shear flow past a flat plate in a compressible\n viscous fluid .\n '
p389
sI390
S'<TITLE>\n some panel-flutter studies using piston theory .\n '
p390
sI391
S'<TITLE>\n flutter of rectangular simply supported panels at high\n supersonic speeds .\n '
p391
sI392
S'<TITLE>\n natural frequencies of rectangular plates with edges\n elastically restrained against rotation .\n '
p392
sI393
S'<TITLE>\n the shear flow along a flat plate with uniform suction .\n '
p393
sI394
S'<TITLE>\n the viscous flow near a stagnation point when the external flow has\n uniform vorticity .\n '
p394
sI395
S'<TITLE>\n new methods in heat flow analysis with application\n to flight structures .\n '
p395
sI396
S'<TITLE>\n variational and lagrangian thermodynamics of thermal\n convection-fundamental shortcomings of the heat transfer\n coefficient .\n '
p396
sI397
S'<TITLE>\n a sublayer for fluid injection into the incompressible\n turbulent boundary layer .\n '
p397
sI398
S'<TITLE>\n heat transfer in turbulent shear flow .\n '
p398
sI399
S'<TITLE>\n conduction of heat in composite slabs .\n '
p399
sI400
S'<TITLE>\n buckling stress of clamped rectangular plates in shear .\n '
p400
sI401
S'<TITLE>\n inviscid hypersonic airflows with coupled non-equilibrium\n processes .\n '
p401
sI402
S'<TITLE>\n magnetohydrodynamics shocks .\n '
p402
sI403
S'<TITLE>\n magnetohydrodynamic shock waves .\n '
p403
sI404
S'<TITLE>\n two dimensional transonic flow past airfoils .\n '
p404
sI405
S'<TITLE>\n tables of thermal properties of gases .\n '
p405
sI406
S'<TITLE>\n on the behaviour of boundary layers at supersonic speeds .\n '
p406
sI407
S'<TITLE>\n stationary convection flow of an electrically conducting\n liquid between parallel plates in a magnetic field .\n '
p407
sI408
S'<TITLE>\n on convective motion of a conducting fluid between\n parallel vertical plates in a magnetic field .\n '
p408
sI409
S'<TITLE>\n on the base pressure resulting from the interaction of a supersonic external\n stream with a sonic or subsonic jet .\n '
p409
sI410
S'<TITLE>\n the supersonic flow about a blunt body of revolution\n for gases at chemical equilibrium .\n '
p410
sI411
S'<TITLE>\n data on shape and location of detached shock waves\n in cones and sphere .\n '
p411
sI412
S'<TITLE>\n critical combinations of shear and transverse direct\n stress for an infinitely long flat plate with\n '
p412
sI413
S'<TITLE>\n turbulent skin friction at high mach numbers and reynolds\n numbers in air and helium . nasa r82, 1960 .\n '
p413
sI414
S'<TITLE>\n the problem of resistance in compressible fluids .\n '
p414
sI415
S'<TITLE>\n the aerodynamic design of section shapes for swept wings .\n '
p415
sI416
S'<TITLE>\n methods of boundary-layer control for postponing and alleviating\n buffeting and other effects of shock-induced separation .\n '
p416
sI417
S'<TITLE>\n on the stability of two dimensional parallel flows .\n '
p417
sI418
S'<TITLE>\n transition form laminar to turbulent shear flow .\n '
p418
sI419
S'<TITLE>\n the design of intermediate vertical stiffeners on web\n plates subjected to shear .\n '
p419
sI420
S'<TITLE>\n an experimental study of the flow field about swept and delta wings\n with sharp leading edges .\n '
p420
sI421
S'<TITLE>\n analytic study of induced pressure on long bodies of\n revolution with varying nose bluntness at hypersonic\n speeds .\n '
p421
sI422
S'<TITLE>\n bending of a square plate with two adjacent edges free\n and the others clamped or simply supported .\n '
p422
sI423
S'<TITLE>\n an experimental investigation of the flow over blunt-nosed\n cones at a mach number of 5. 8.\n '
p423
sI424
S'<TITLE>\n cantilever plate with concentrated edge load .\n '
p424
sI425
S'<TITLE>\n the solution of elastic plate problems by electrical analogies .\n '
p425
sI426
S'<TITLE>\n preliminary analysis of axial flow compressors having\n supersonic velocity at the entrance of the stator .\n '
p426
sI427
S'<TITLE>\n flow of gas through turbine lattices .\n '
p427
sI428
S'<TITLE>\n the quasi-cylinder of specified thickness and shell\n loading in supersonic flow .\n '
p428
sI429
S'<TITLE>\n a description of the r. a. e.  high speed supersonic\n tunnel .\n '
p429
sI430
S'<TITLE>\n calibration of the flow in the mach 4 working section\n of the 4ft . x 3ft . high supersonic speed wind tunnel\n at rae bedford .\n '
p430
sI431
S'<TITLE>\n free-flight measurements of the zero-lift drag and\n base pressure on a wind tunnel interference model (m=0 .\n 8 - 1. 5) .\n '
p431
sI432
S'<TITLE>\n theoretical damping in roll and rolling moment due\n to differential wing incidence for slender cruciform\n wings and wing-body combinations .\n '
p432
sI433
S'<TITLE>\n application of two dimensional vortex theory to the\n prediction of flow fields behind wings of wing-body\n combinations at subsonic and supersonic speeds .\n '
p433
sI434
S'<TITLE>\n contributions of the wing panels to the forces and\n moments of supersonic wing-body combinations at combined\n angles .\n '
p434
sI435
S'<TITLE>\n application of similar solutions to calculations of\n laminar heat transfer on bodies with yaw and large\n pressure gradients in high speed flow .\n '
p435
sI436
S'<TITLE>\n heat transfer in planetary atmospheres at super-satellite speeds .\n '
p436
sI437
S'<TITLE>\n hypervelocity stagnation point heat transfer .\n '
p437
sI438
S'<TITLE>\n stagnation point heat transfer measurements at super\n satellite speeds .\n '
p438
sI439
S'<TITLE>\n a factor affecting transonic leading edge flow separation .\n '
p439
sI440
S'<TITLE>\n compilation of information on the transonic attachment\n of flows at the leading edge of airfoils .\n '
p440
sI441
S'<TITLE>\n evaluation of high angle-of-attack aerodynamic derivative\n data and stall-flutter prediction techniques .\n '
p441
sI442
S'<TITLE>\n some effects of variations in several parameters including\n fluid density on the flutter speed of light uniform\n cantilever wings .\n '
p442
sI443
S'<TITLE>\n calculated and measured pressure distributions over the midspan section\n of the naca 4412 airfoil .\n '
p443
sI444
S'<TITLE>\n an approach to the flutter problem in real fluids .\n '
p444
sI445
S'<TITLE>\n on the application of mathieu functions in the theory\n of subsonic compressible flow past oscillating airfoils .\n '
p445
sI446
S'<TITLE>\n wake of a satellite traversing the ionosphere .\n '
p446
sI447
S'<TITLE>\n motion of thin bodies in a highly rarefied plasma .\n '
p447
sI448
S'<TITLE>\n induction drag on a large negatively charged satellite\n moving in a magnetic-field-free ionosphere .\n '
p448
sI449
S'<TITLE>\n interaction of a charged satellite with the ionosphere .\n '
p449
sI450
S'<TITLE>\n some physical interpretations of magnetohydrodynamic duct flows .\n '
p450
sI451
S"<TITLE>\n liapunov's methods in automatic control theory .\n "
p451
sI452
S'<TITLE>\n symmetric joukowsky airfoils in shear flow .\n '
p452
sI453
S'<TITLE>\n the influence of two-dimensional stream shear on airfoil maximum lift .\n '
p453
sI454
S'<TITLE>\n several approximate analyses of the bending of a rectangular\n cantilever plate by uniform normal pressure .\n '
p454
sI455
S'<TITLE>\n modified cross-lees mixing theory for supersonic separated\n and reattaching flows .\n '
p455
sI456
S'<TITLE>\n a study of flow fields about some typical blunt-nosed\n slender bodies .\n '
p456
sI457
S'<TITLE>\n on laminar boundary-layer flow near a position of separation .\n '
p457
sI458
S'<TITLE>\n a new series for calculation of steady laminar boundary\n layer flows .\n '
p458
sI459
S'<TITLE>\n on the solution of the laminar boundary layer equations .\n '
p459
sI460
S'<TITLE>\n correlated incompressible and compressible boundary\n layers .\n '
p460
sI461
S'<TITLE>\n approximate methods fore predicting separation properties\n of laminar boundary layers .\n '
p461
sI462
S'<TITLE>\n photo-thermoelasticity .\n '
p462
sI463
S'<TITLE>\n physical properties of plastics for photo-thermoelastic\n investigation .\n '
p463
sI464
S'<TITLE>\n flow studies on flat plate delta wings at supersonic\n speeds .\n '
p464
sI465
S'<TITLE>\n slender delta wings with sharp edges at zero lift .\n '
p465
sI466
S'<TITLE>\n development of the vapour screen method of flow\n visualization in the 3ft tunnel at rae bedford.\n '
p466
sI467
S'<TITLE>\n thin airfoil theory based on approximate solution of the transonic flow\n equation .\n '
p467
sI468
S'<TITLE>\n a refinement of the linearised transonic flow theory .\n '
p468
sI469
S'<TITLE>\n linearised transonic flow about slender bodies at zero\n angle of attack .\n '
p469
sI470
S'<TITLE>\n some notes for the small disturbance linear theory\n of the method of local linearisation of the flow over\n an airfoil at mach number of unity .\n '
p470
sI471
S'<TITLE>\n '
p471
sI472
S'<TITLE>\n waves in supersonic flow .\n '
p472
sI473
S'<TITLE>\n freeman method .\n '
p473
sI474
S'<TITLE>\n laminar mixing of a compressible fluid .\n '
p474
sI475
S'<TITLE>\n the velocity distribution in the laminar boundary layer\n between parallel streams .\n '
p475
sI476
S'<TITLE>\n the blasius equation with three-point boundary conditions .\n '
p476
sI477
S'<TITLE>\n laminar boundary layers at the interface of co-current\n parallel streams .\n '
p477
sI478
S'<TITLE>\n tabulation of the blasius function with blowing and\n suction .\n '
p478
sI479
S"<TITLE>\n on an equation occurring in falkner and skan's approximate\n treatment of the equation of the boundary layer .\n "
p479
sI480
S'<TITLE>\n adiabatic wall temperature due to mass transfer cooling with a\n combustible gas .\n '
p480
sI481
S'<TITLE>\n mass transfer cooling of a laminary boundary layer\n by injection of a light weight foreign gas .\n '
p481
sI482
S'<TITLE>\n a re-examination of the use of the simple concepts\n for prediction the shape and location of detached shock\n waves .\n '
p482
sI483
S'<TITLE>\n stagnation point shock detachment distance for flow\n around spheres and cylinder .\n '
p483
sI484
S'<TITLE>\n the influence of two-dimensional stream shear for airfoil\n maximum lift .\n '
p484
sI485
S'<TITLE>\n linear heat flow in a composite slab .\n '
p485
sI486
S'<TITLE>\n similarity laws for aerothermoelastic testing .\n '
p486
sI487
S'<TITLE>\n theory for supersonic two-dimensional, laminar, base-type\n flows using the crocco-lees mixing concepts .\n '
p487
sI488
S'<TITLE>\n a reaction-rate parameter for gasdynamics of a chemically\n reacting gas mixture .\n '
p488
sI489
S'<TITLE>\n on calculation of the laminar separation point and\n results of certain flows .\n '
p489
sI490
S'<TITLE>\n normal-shock relations in magnetohydrodynamics .\n '
p490
sI491
S'<TITLE>\n on the close relationship between turbulent plane-couette\n and pressure flows .\n '
p491
sI492
S'<TITLE>\n prediction of ogive-forebody pressures at angles of attack .\n '
p492
sI493
S'<TITLE>\n real-gas laminar boundary layer skin friction and heat\n transfer .\n '
p493
sI494
S'<TITLE>\n axisymmetric viscous flow plast very slender bodies\n of revolution .\n '
p494
sI495
S'<TITLE>\n on similar solutions for strong blast waves and their\n application to steady hypersonic flow .\n '
p495
sI496
S'<TITLE>\n a theory of transonic aileron buzz, neglecting viscous\n effects .\n '
p496
sI497
S'<TITLE>\n theoretical and experimental investigation of thermal\n stresses in hypersonic aircraft wing structures .\n '
p497
sI498
S'<TITLE>\n calculation of potential flow about bodies of revolution\n having axes perpendicular to the free-stream direction .\n '
p498
sI499
S'<TITLE>\n a closed-form solution for the oscillations of a vehicle\n entering a planetary atmosphere .\n '
p499
sI500
S'<TITLE>\n joule heating in magnetohydrodynamic free-convection\n flows .\n '
p500
sI501
S'<TITLE>\n stagnation-point shock detachment of blunt bodies in\n supersonic flow .\n '
p501
sI502
S"<TITLE>\n on squire's test of the compressibility transformation .\n "
p502
sI503
S'<TITLE>\n theoretical prediction of the transonic characteristics\n of airfoils .\n '
p503
sI504
S'<TITLE>\n stability of compressible boundary layers induced by\n a moving wave .\n '
p504
sI505
S'<TITLE>\n transition measurements on cones in free flight ballistics\n range tests .\n '
p505
sI506
S"<TITLE>\n a note on havelock's shallow-water wave-resistance\n curves .\n "
p506
sI507
S'<TITLE>\n energy equation approximations in fluid mechanics .\n '
p507
sI508
S'<TITLE>\n a correlation of nose-bluntness induced pressures on\n cylindrical and conical after-bodies at hypersonic\n speeds .\n '
p508
sI509
S'<TITLE>\n a graphical approximation for temperatures and sublimation rates at\n surfaces subjected to small net and large gross heat transfer rates .\n '
p509
sI510
S'<TITLE>\n manoeuvring technique for changing the plane of circular\n orbits with minimum fuel expenditure .\n '
p510
sI511
S'<TITLE>\n tunnel tests on a double cascade to determine the interaction\n between the rotor and the nozzles of a supersonic turbine .\n '
p511
sI512
S'<TITLE>\n quasi-cylindrical surfaces with prescribed thickness\n distributions .\n '
p512
sI513
S'<TITLE>\n pressure measurements at supersonic speeds on three\n uncambered conical wings of unit aspect ratio .\n '
p513
sI514
S'<TITLE>\n pressure distributions and flow patterns on some conical\n shapes with sharp edges and symmetrical cross-sections\n at m=4 .0.\n '
p514
sI515
S'<TITLE>\n self sustained oscillations of a system with non-linear\n damping of a particular type .\n '
p515
sI516
S'<TITLE>\n free-flight measurements of the dynamic longitudinal\n stability characteristics of a wind tunnel interference\n model (m=0 .92 to 1. 35) .\n '
p516
sI517
S'<TITLE>\n reaction-resisted shock fronts .\n '
p517
sI518
S'<TITLE>\n heat conduction through a polyatomic gas .\n '
p518
sI519
S'<TITLE>\n base pressure at supersonic speeds in the presence\n of a supersonic jet .\n '
p519
sI520
S"<TITLE>\n wing-tail interference as a cause of 'magnus' effects\n on a finned missile .\n "
p520
sI521
S'<TITLE>\n a note on application of transonic linearization to\n an airfoil with a round leading edge .\n '
p521
sI522
S'<TITLE>\n laminar, transitional and turbulent heat transfer to\n a cone-cylinder-flare body at mach 8. 0.\n '
p522
sI523
S'<TITLE>\n approximate determination of position of the sonic\n line for a blunt body in hypersonic flow .\n '
p523
sI524
S'<TITLE>\n stagnation point heat transfer in partially ionized\n air .\n '
p524
sI525
S'<TITLE>\n on hypersonic viscous flow over an insulated flat plate\n with surface mass transfer .\n '
p525
sI526
S'<TITLE>\n leading edge attachment in transonic flow with laminar\n or turbulent boundary layers .\n '
p526
sI527
S'<TITLE>\n note on the three-point boundary layer problem for\n the blasius equations .\n '
p527
sI528
S'<TITLE>\n first-order slip effects on the laminar boundary layer over a slender\n body of revolution with zero pressure gradient .\n '
p528
sI529
S'<TITLE>\n some effects of injection of foreign gases in a decelerating\n laminar boundary layer in supersonic flow .\n '
p529
sI530
S'<TITLE>\n an aerodynamic analysis for flutter in oseen-type viscous\n flow .\n '
p530
sI531
S'<TITLE>\n the flow about a moving body in the upper ionosphere .\n '
p531
sI532
S'<TITLE>\n pitch-yaw stability of a missile oscillating in roll\n via the second method of lyapunov .\n '
p532
sI533
S'<TITLE>\n stagnation-point shock-detachment distance for flow\n around spheres and cylinders in air .\n '
p533
sI534
S'<TITLE>\n consideration of energy separation for laminar slip\n flow in a circular tube .\n '
p534
sI535
S'<TITLE>\n shroud design for simulating hypersonic flow over the nose of a\n hemisphere .\n '
p535
sI536
S'<TITLE>\n transition in the viscous wakes of blunt bodies at\n hypersonic speeds .\n '
p536
sI537
S'<TITLE>\n stagnation point viscous hypersonic flow .\n '
p537
sI538
S'<TITLE>\n the conpressibility transformation and the turbulent\n boundary layer equations .\n '
p538
sI539
S'<TITLE>\n local heat transfer to a yawed, infite, circular cylinder\n in laminar compressible flow .\n '
p539
sI540
S'<TITLE>\n use of local similarity concepts in hypersonic viscous\n interaction problems .\n '
p540
sI541
S'<TITLE>\n similitude of hypersonic flows over slender bodies\n in non-equilibrium dissociated gases .\n '
p541
sI542
S"<TITLE>\n biot's variational principle in heat conduction .\n "
p542
sI543
S'<TITLE>\n the stacking of compressor stage characteristics to\n give an overall compressor performance map .\n '
p543
sI544
S'<TITLE>\n a theoretical and experimental study of oscillating wedge shaped\n aerofoils in hypersonic flow .\n '
p544
sI545
S'<TITLE>\n calculation of sideslip derivatives and pressure distribution\n in asymmetric flight conditions on a slender wing-fin\n configuration .\n '
p545
sI546
S'<TITLE>\n measurements of aerodynamic heating on a 15 cone of\n graded wall thickness at a mach number of 6. 8.\n '
p546
sI547
S'<TITLE>\n boundary layer characteristics of caret wings .\n '
p547
sI548
S'<TITLE>\n the contraction of satellite orbits under the influence\n of air drag . pt .iv with scale height dependent on\n altitude .\n '
p548
sI549
S'<TITLE>\n experimental study of the velocity and temperature\n distribution in a high-velocity vortex-type flow .\n '
p549
sI550
S'<TITLE>\n laminar heat transfer in tubes under slip-flow conditions .\n '
p550
sI551
S'<TITLE>\n analysis of a loaded cantilever plate by finite difference\n methods .\n '
p551
sI552
S'<TITLE>\n chemical kinetics of high temperature air .\n '
p552
sI553
S'<TITLE>\n ablation of glassy materials around blunt bodies of\n revolution .\n '
p553
sI554
S'<TITLE>\n generalized heat transfer formulas and graphs .\n '
p554
sI555
S'<TITLE>\n closing reply to comments on generalized heat transfer\n formulas and graphs for nose cone re-entry into the\n atmosphere .\n '
p555
sI556
S'<TITLE>\n numerical comparison between exact and approximate\n theories of hypersonic inviscid flow past slender blunt\n nosed bodies .\n '
p556
sI557
S'<TITLE>\n a numerical comparison between exact and approximate\n theories of hypersonic inviscid flow past slender blunt\n nosed bodies .\n '
p557
sI558
S'<TITLE>\n experimental measurements of turbulent transition motion,\n statistics and gross radial growth behind hypervelocity object.\n '
p558
sI559
S'<TITLE>\n heat transfer at the forward stagnation point of blunt\n bodies .\n '
p559
sI560
S'<TITLE>\n a theoretical study of the effect of upstream transpiration-cooling\n on the heat transfer and skin friction characteristics\n of a compressible laminar boundary layer .\n '
p560
sI561
S'<TITLE>\n a geometric problem related to the optimum distribution\n of lift on a planar wing in supersonic flow .\n '
p561
sI562
S'<TITLE>\n concerning the effect of compressibility on laminar\n boundary layers and their separation .\n '
p562
sI563
S'<TITLE>\n the law of the wake in the turbulent boundary layer .\n '
p563
sI564
S'<TITLE>\n local heat transfer and recovery temperature on a yawed\n cylinder at a mach number of 4. 15 and high reynolds\n numbers .\n '
p564
sI565
S'<TITLE>\n similar solutions for the compressible boundary layer\n on a yawed cylinder with transpiration cooling .\n '
p565
sI566
S'<TITLE>\n investigation of local heat transfer and pressure drag\n characteristics of a yawed circular cylinder at supersonic\n speeds .\n '
p566
sI567
S'<TITLE>\n aerodynamic characteristics of a circular cylinder\n at mach number of 6. 86 and angles of attack up to\n 90 .\n '
p567
sI568
S'<TITLE>\n shock wave effects on the laminar skin friction of\n an insulated flat plate at hypersonic speeds .\n '
p568
sI569
S'<TITLE>\n an experimental investigation of leading edge shock wave boundary layer\n interaction at mach 5.8 .\n '
p569
sI570
S'<TITLE>\n on the boundary layer equations in hypersonic flow\n and their approximate solutions .\n '
p570
sI571
S'<TITLE>\n heat transfer to flat plate in high temperature rarefied\n ultra-high mach number flow .\n '
p571
sI572
S'<TITLE>\n boundary layer displacement and leading edge bluntness effects in high\n temperature hypersonic flow .\n '
p572
sI573
S'<TITLE>\n viscous hypersonic similitude .\n '
p573
sI574
S'<TITLE>\n inviscid flow with nonequilibrium molecular dissociation for pressure\n distributions encountered in hypersonic flight .\n '
p574
sI575
S'<TITLE>\n atomic recombination in a hypersonic wind tunnel nozzle .\n '
p575
sI576
S'<TITLE>\n viscous and inviscid stagnation flow in a dissociated hypervelocity free\n  stream .\n '
p576
sI577
S'<TITLE>\n on hypersonic similitude .\n '
p577
sI578
S'<TITLE>\n dissociation scaling for nonequilibrium blunt nose flows .\n '
p578
sI579
S'<TITLE>\n further developments of new methods in heat flow analysis .\n '
p579
sI580
S'<TITLE>\n new thermo-mechanical reciprocity relations with application\n to thermal stress analysis .\n '
p580
sI581
S'<TITLE>\n approximate formulas for thermal-stress analysis .\n '
p581
sI582
S'<TITLE>\n the melting of finite slabs .\n '
p582
sI583
S'<TITLE>\n influence coefficients for real gases .\n '
p583
sI584
S'<TITLE>\n conduction of heat in a solid with a power law of heat\n transfer at its surface .\n '
p584
sI585
S'<TITLE>\n nonlinear heat transfer problem .\n '
p585
sI586
S'<TITLE>\n an approximate treatment of unsteady heat conduction\n in semi-infinite solids with variable thermal properties .\n '
p586
sI587
S'<TITLE>\n variational analysis of ablation .\n '
p587
sI588
S'<TITLE>\n compressor operation with one or more blade rows stalled .\n '
p588
sI589
S'<TITLE>\n some stall and surge phenomena in axial flow compressors .\n '
p589
sI590
S'<TITLE>\n effects of stage characteristics and matching on axial flow compressor\n performance .\n '
p590
sI591
S'<TITLE>\n an approximate equation for the /choke line/ of a compressor .\n '
p591
sI592
S'<TITLE>\n design of axial compressors .\n '
p592
sI593
S'<TITLE>\n theoretical considerations of flutter at high mach\n number .\n '
p593
sI594
S'<TITLE>\n wind tunnel techniques for the measurements of oscillatory derivatives\n .\n '
p594
sI595
S'<TITLE>\n the equilibrium piston technique for gun tunnel operation .\n '
p595
sI596
S'<TITLE>\n the properties of crossed flexure pivots, and the influence of the\n point at which the strips cross .\n '
p596
sI597
S'<TITLE>\n measurements of pitching moment derivatives for blunt-nose aerofoils\n oscillating in two-dimensional supersonic flow .\n '
p597
sI598
S'<TITLE>\n new test techniques for a hypervelocity wind tunnel .\n '
p598
sI599
S'<TITLE>\n aerodynamic forces, moments and stability derivatives\n for slender bodies of general cross section .\n '
p599
sI600
S'<TITLE>\n the calculation of lateral stability derivatives of\n slender wings at incidence including fin effectiveness,\n and correlation with experiment .\n '
p600
sI601
S'<TITLE>\n calculation of the flow past slender delta wings with\n leading edge separation .\n '
p601
sI602
S'<TITLE>\n the 7 x 7 in . hypersonic wind tunnel at rae farnborough,\n part 1, design, instrumentation and flow visualization\n techniques .\n '
p602
sI603
S'<TITLE>\n the 7 in. x 7 in. hypersonic wind tunnel at r.a.e. farnborough\n part ii. heater performance .\n '
p603
sI604
S'<TITLE>\n the 7 in. x 7 in. hypersonic wind tunnel at r.a.e., farnborough\n part iii - calibration of the flow in the working section .\n '
p604
sI605
S'<TITLE>\n pressure measurements on a cone-cylinder-flare configuration at small\n incidences for m 6.8 .\n '
p605
sI606
S'<TITLE>\n formulae and approximations for aerodynamic heating rates in high speed\n flight .\n '
p606
sI607
S'<TITLE>\n duct flow in magnetohydrodynamics .\n '
p607
sI608
S'<TITLE>\n aerodynamic noise in supersonic wind tunnels .\n '
p608
sI609
S'<TITLE>\n on three dimensional bodies of delta planform which\n can support plane attached shock waves .\n '
p609
sI610
S'<TITLE>\n corner interference effects .\n '
p610
sI611
S'<TITLE>\n an approximate solution of the compressible laminar\n boundary layer on a flat plate .\n '
p611
sI612
S"<TITLE>\n pressure distributions and flow patterns at m=4 . on\n some delta wings of inverted 'v' cross section .\n "
p612
sI613
S'<TITLE>\n the contraction of satellite orbits under the influence of air drag\n part i . with spherically symmetrical atmosphere .\n '
p613
sI614
S'<TITLE>\n the contraction of satellite orbits under the influence of air drag .\n '
p614
sI615
S'<TITLE>\n the contraction of satellite orbits under the influence of air drag .\n part iii . high eccentricity orbits . /0.2 e 1/\n '
p615
sI616
S'<TITLE>\n determination of upper-atmosphere air density and scale height from\n satellite observations .\n '
p616
sI617
S'<TITLE>\n determination of upper-atmosphere air density profile from satellite\n observations .\n '
p617
sI618
S'<TITLE>\n orbit decay and prediction of the motion of artificial satellites .\n '
p618
sI619
S'<TITLE>\n density of the upper atmosphere from analysis of satellite orbits ..\n further results .\n '
p619
sI620
S'<TITLE>\n earth satellite observations and the upper atmosphere .\n '
p620
sI621
S'<TITLE>\n latitude and diurnal variations of air densities from 190 to 280 km.\n as derived from the orbits of discoverer satellites .\n '
p621
sI622
S'<TITLE>\n scale height in the upper atmosphere, derived from changes in satellite\n orbits .\n '
p622
sI623
S'<TITLE>\n on the coupling between heat and mass transfer .\n '
p623
sI624
S'<TITLE>\n cruise performance of channel-flow ground effect machines .\n '
p624
sI625
S'<TITLE>\n viscous and inviscid nonequilibrium gas flows .\n '
p625
sI626
S'<TITLE>\n some features of supersonic and hypersonic flow about\n blunted cones .\n '
p626
sI627
S'<TITLE>\n flutter analysis of circular panels .\n '
p627
sI628
S'<TITLE>\n thermal effects on a transpiration cooled hemisphere .\n '
p628
sI629
S'<TITLE>\n second-order effects in laminar boundary layers .\n '
p629
sI630
S'<TITLE>\n stagnation region in rarefied high mach number flow .\n '
p630
sI631
S'<TITLE>\n low speed wind tunnel tests on a two dimensional aerofoil\n with split flap near the ground .\n '
p631
sI632
S'<TITLE>\n calculated lift distributions in incompressible flow\n on some sweptback wings .\n '
p632
sI633
S'<TITLE>\n an extension of the method of generalised conical flows\n for lifting wings in supersonic flow .\n '
p633
sI634
S'<TITLE>\n effects of leading edge bluntness on flutter characteristics\n of some square- planform double-wedge airfoils at a\n mach number of 15 .4.\n '
p634
sI635
S'<TITLE>\n heat transfer and pressure distributions on a hemisphere-cylinder and a\n bluff-afterbody model\n in methane-air combustion products and in air\n '
p635
sI636
S'<TITLE>\n pressure distribution induced on a flat plate at a free-stream\n mach number of 1.39 by rockets exhausting upstream and downstream .\n '
p636
sI637
S'<TITLE>\n an integral equation relating the general time-dependent lift and\n downwash distributions on finite wings in subsonic flow .\n '
p637
sI638
S'<TITLE>\n longitudinal aerodynamic characteristics at low subsonic\n speeds of a highly swept wing utilizing nose deflection\n for control .\n '
p638
sI639
S'<TITLE>\n analytical study of the tumbling motions of vehicles\n entering planetary atmospheres .\n '
p639
sI640
S'<TITLE>\n the design of structures to resist jet noise fatigue .\n '
p640
sI641
S'<TITLE>\n reduction of the clamped plate to two membrane problems\n with an application to uniformly loaded sectors .\n '
p641
sI642
S'<TITLE>\n the buckling strength of a uniform circular cylinder\n loaded in axial compression .\n '
p642
sI643
S'<TITLE>\n an investigation of wing-aileron flutter using ground\n launched rocket models .\n '
p643
sI644
S'<TITLE>\n a study of the cantilever square plate subjected to\n a uniform loading .\n '
p644
sI645
S'<TITLE>\n thermodynamic coupling in boundary layers .\n '
p645
sI646
S'<TITLE>\n thermal diffusion effects on energy transfer in a turbulent\n boundary layer with helium injection\n '
p646
sI647
S'<TITLE>\n bending of a uniformly loaded rectangular plate with\n two adjacent edges and the others either simply supported\n or free .\n '
p647
sI648
S'<TITLE>\n the approximate analysis of certain boundary value\n problems .\n '
p648
sI649
S'<TITLE>\n the hovercraft - a new concept in maritime transport .\n '
p649
sI650
S'<TITLE>\n some design problems of hovercraft .\n '
p650
sI651
S'<TITLE>\n heat transfer to separated and reattached subsonic\n turbulen flows obtained downstream of a surface step .\n '
p651
sI652
S'<TITLE>\n pressure distribution on two dimensional wings near\n the ground .\n '
p652
sI653
S'<TITLE>\n transient magnetohydrodynamic duct flow .\n '
p653
sI654
S'<TITLE>\n on the propagation and structure of the blast wave .\n  part 1.\n '
p654
sI655
S'<TITLE>\n effects of boundary layer displacement and leading edge bluntness on\n pressure distribution, skin friction, and heat transfer of bodies at\n hypersonic speeds .\n '
p655
sI656
S'<TITLE>\n departure from dissociation equilibrium in a hypersonic nozzle .\n '
p656
sI657
S'<TITLE>\n interferometric studies of supersonic flows about truncated\n cones .\n '
p657
sI658
S'<TITLE>\n review of panel flutter and effects of aerodynamic noise\n part i..  panel flutter .\n '
p658
sI659
S'<TITLE>\n nonuniform shear flow past cylinders .\n '
p659
sI660
S'<TITLE>\n the fundamental solution for small steady three dimensional\n disturbances to a two dimensional parallel shear flow .\n '
p660
sI661
S'<TITLE>\n summary of laminar boundary layer solutions for wedgetype\n flow over convection and transpiration cooled\n surfaces .\n '
p661
sI662
S'<TITLE>\n theoretical and experimental investigation of aerodynamicheating\n and isothermal heat transfer parameters on\n a hemisphere nose with laminar boundary layer at supersonic\n mach numbers .\n '
p662
sI663
S'<TITLE>\n viscous flow along a flat plate moving at high speeds .\n '
p663
sI664
S'<TITLE>\n the boundary layer on a flat plate in a stream with\n uniform shear .\n '
p664
sI665
S'<TITLE>\n on the theory of hypersonic gas flow with a power law\n shock wave .\n '
p665
sI666
S'<TITLE>\n blunt body heat transfer at hypersonic speed and low reynolds numbers .\n '
p666
sI667
S'<TITLE>\n hypersonic shock layer theory of the stagnation region at low reynolds\n number .\n '
p667
sI668
S'<TITLE>\n measurements of stagnation point heat transfer at low\n reynolds number .\n '
p668
sI669
S'<TITLE>\n subsonic potential flow past a sphere inside a cylindrical duct .\n '
p669
sI670
S'<TITLE>\n on blunt-body heat transfer at hypersonic speed and low reynolds\n number .\n '
p670
sI671
S'<TITLE>\n pressure and boundary-layer measurements on a two dimensional wing at\n low speed .\n '
p671
sI672
S'<TITLE>\n tunnel interference effects .\n '
p672
sI673
S'<TITLE>\n investigation of full scale split trailing edge wing\n flaps with various chords and hinge locations .\n '
p673
sI674
S'<TITLE>\n the shapes and lift-dependent drags on some sweptback\n wings designed for m= 1. 2.\n '
p674
sI675
S'<TITLE>\n pressure distribution and surface flow on 5( and 9( thick wings with\n curved tip and 60degree sweepback .\n '
p675
sI676
S'<TITLE>\n a simple method for calculating the span and chordwise loading on\n straight and swept wings of any aspect ratio at subsonic speeds .\n '
p676
sI677
S'<TITLE>\n methods for calculating the lift distribution of wings /subsonic lifting\n surface theory/ .\n '
p677
sI678
S'<TITLE>\n the effect of end plates on swept wings .\n '
p678
sI679
S'<TITLE>\n low speed tests on 45 sweptback wings .\n '
p679
sI680
S'<TITLE>\n generalized conical flow fields in supersonic wing theory .\n '
p680
sI681
S'<TITLE>\n integrals and integral equations in linearized wing theory .\n '
p681
sI682
S'<TITLE>\n the lift of twisted and cambered wings in supersonic flow .\n '
p682
sI683
S'<TITLE>\n the use of conical camber to produce flow attachment at the leading\n edge of a delta wing and to minimize the lift-dependent drag at sonic\n and supersonic speeds .\n '
p683
sI684
S'<TITLE>\n tables of complete elliptic integrals .\n '
p684
sI685
S'<TITLE>\n aerodynamic effects of some configuration variables\n on the aeroelastic characteristics of lifting surfaces\n at mach numbers from 0. 7 to 6. 86 .\n '
p685
sI686
S'<TITLE>\n flutter tests of some simple models at a mach number\n of 7. 2 in helium flow .\n '
p686
sI687
S'<TITLE>\n oscillating airfoils at high mach number .\n '
p687
sI688
S'<TITLE>\n tables of aerodynamic coefficients obtained from developed newtonian\n expressions for complete and partial conic and spheric bodies at combined\n angles of attack and sideslip with some comparisons with hypersonic\n experimental data .\n '
p688
sI689
S'<TITLE>\n investigation of the laminar aerodynamics heat transfer\n characteristics of a hemisphere cylinder in the langley\n 11-inch hypersonic tunnel at a mach number of 6. 8.\n '
p689
sI690
S'<TITLE>\n investigaion of the flow over a spiked-nose hemisphere\n cylinder at a mach number of 6. 8.\n '
p690
sI691
S'<TITLE>\n calculation procedure for thermodynamic transport, and flow properties\n of the combustion products of a hydrocarbon fuel mixture burned in air\n with results for ethylene-air and methane-air mixtures .\n '
p691
sI692
S'<TITLE>\n investigation of the jet effects on a flat surface downstream of the\n exit of a simulated turbojet nacelle at a free-stream mach number of\n 2.02 .\n '
p692
sI693
S'<TITLE>\n investigation of jet effects on a flat surface downstream of the exit of\n  a simulated turbojet nacelle at a free-stream mach number of 1.39 .\n '
p693
sI694
S'<TITLE>\n pressure distribution induced on a flat plate by a supersonic and sonic\n jet exhaust at a free-stream mach number of 1.80 .\n '
p694
sI695
S'<TITLE>\n some experiments relating to the problem of simulation of hot jet\n engines in studies of jet effects on adjacent surfaces at a free-stream\n mach number of 1.80 .\n '
p695
sI696
S'<TITLE>\n pressure loads produced on a flat-plate wing by rocket jets exhausting\n in a spanwise direction below the wing and perpendicular to a freestream\n flow of mach number 2.0 .\n '
p696
sI697
S'<TITLE>\n effects on adjacent surfaces from the firing of rocket jets .\n '
p697
sI698
S'<TITLE>\n the unsteady lift of a wing of finite aspect ratio .\n '
p698
sI699
S'<TITLE>\n approximate indical lift functions for several wings of finite span in\n incompressible flow as obtained from oscillatory lift coefficients .\n '
p699
sI700
S'<TITLE>\n two and three-dimensional unsteady lift problems in high speed flight .\n '
p700
sI701
S'<TITLE>\n numerical determination of indical lift of a two-dimensional sinking\n airfoil at subsonic mach numbers from oscillatory lift coefficients with\n  calculations for mach number 0.7 .\n '
p701
sI702
S'<TITLE>\n numerical determination of indical lift and moment functions for a two\n dimensional sinking and pitching airfoil at mach numbers 0.5 and 0.6 .\n '
p702
sI703
S'<TITLE>\n general airfoil theory .\n '
p703
sI704
S'<TITLE>\n a systematic kernel function procedure for determining aerodynamic\n forces on oscillating or steady finite wings at subsonic speeds .\n '
p704
sI705
S'<TITLE>\n on the kernel function of the integral equation relating the lift and\n downwash distributions of oscillating finite wings in subsonic flow .\n '
p705
sI706
S'<TITLE>\n on som reciprocal relations in the theory of nonstationary flows .\n '
p706
sI707
S'<TITLE>\n thermal analysis of stagnation regions with emphasis on heat-sustaining\n nose shapes at hypersonic speeds .\n '
p707
sI708
S'<TITLE>\n aerodynamic characteristics of two winged reentry vehicles at supersonic\n  and hypersonic speeds .\n '
p708
sI709
S'<TITLE>\n static longitudinal aerodynamic characteristics at transonic speeds and\n angles of attack up to 99degree of a reentry glider having folding\n wingtip panels .\n '
p709
sI710
S'<TITLE>\n the smallest height of roughness capable of affecting boundary-layer\n transition .\n '
p710
sI711
S'<TITLE>\n an investigation at subsonic speeds of aerodynamic characteristics at\n angles of attack from -dash 4degrees to 100degrees of a delta-wing\n reentry configuration having folding wingtip panels .\n '
p711
sI712
S'<TITLE>\n low-speed longitudinal aerodynamic characteristics associated with a\n series of low-aspect ratio wings having variations in leading-edge\n contour .\n '
p712
sI713
S'<TITLE>\n static longitudinal stability characteristics of a blunted glider reentry\n configuration having 79.5degree sweepback and 45degree dihedral at\n  a mach number of 6.2 and angles of attack up to 20degree .\n '
p713
sI714
S'<TITLE>\n blockage corrections for three-dimensional flow closed\n throat wind tunnels, with considerations of the effect\n of compressibility .\n '
p714
sI715
S'<TITLE>\n motion of a ballistic missile angularly misaligned\n with the flight path upon entering the atmosphere and\n its effect upon aerodynamic heating, aerodynamic loads\n and miss distance .\n '
p715
sI716
S"<TITLE>\n study of the oscillatory motion of manned vehicles\n entering the earth's atmosphere .\n "
p716
sI717
S'<TITLE>\n motions of a short 10degree blunted cone entering a martian atmosphere\n at arbitrary angles of attack and arbitrary pitching rates .\n '
p717
sI718
S'<TITLE>\n means and examples of aeronautical research in france at onera .\n '
p718
sI719
S'<TITLE>\n tumbling bodies entering the atmosphere .\n '
p719
sI720
S'<TITLE>\n a note on the use of sandwich structures in severe acoustic\n environments .\n '
p720
sI721
S'<TITLE>\n near noise field of a jet engine exhaust .\n '
p721
sI722
S'<TITLE>\n random excitation of a tailplane section by jet noise .\n '
p722
sI723
S'<TITLE>\n on the fatigue failure of structures due to vibrations excited\n by random pressure fields .\n '
p723
sI724
S'<TITLE>\n structural acoustic proof testing .\n '
p724
sI725
S'<TITLE>\n the response of a typical aircraft structure to jet\n noise .\n '
p725
sI726
S'<TITLE>\n on structural fatigue under random loading .\n '
p726
sI727
S'<TITLE>\n a study of the acoustic fatigue characteristics of\n some flat and curved aluminium panels exposed to random\n and discrete noise .\n '
p727
sI728
S'<TITLE>\n free vibrations of continuous skin stringer panels .\n '
p728
sI729
S'<TITLE>\n stresses in continuous skin stiffener panels under random loading .\n '
p729
sI730
S'<TITLE>\n on the bending of a clamped plate .\n '
p730
sI731
S'<TITLE>\n upper and lower bounds for the solution of the first\n biharmonic boundary value problem .\n '
p731
sI732
S'<TITLE>\n on the analogues relating flexure and extension of\n flat plates .\n '
p732
sI733
S'<TITLE>\n the bending of a sectorial plate .\n '
p733
sI734
S'<TITLE>\n the bending of uniformly loaded clamped plate in the\n form of a circular sector .\n '
p734
sI735
S'<TITLE>\n the bending of uniformly loaded sectorial plates with\n clamped edges .\n '
p735
sI736
S'<TITLE>\n the bending of a wedge shaped plate .\n '
p736
sI737
S'<TITLE>\n on the analysis of elastic plates of variable thickness .\n '
p737
sI738
S"<TITLE>\n finding zero's of arbitrary functions .\n "
p738
sI739
S'<TITLE>\n the buckling of thin cylindrical shells under axial\n compression .\n '
p739
sI740
S'<TITLE>\n the behaviour of a cylindrical shell under axial compression\n when the buckling load has been exceeded .\n '
p740
sI741
S'<TITLE>\n the behaviour of thin cylindrical shells after buckling\n under axial compression .\n '
p741
sI742
S'<TITLE>\n post-buckling behaviour of axially compressed circular\n cylinder shells .\n '
p742
sI743
S'<TITLE>\n new developments in the nonlinear theories of the buckling of thin\n cylindrical shells .\n '
p743
sI744
S'<TITLE>\n lower buckling load in the non-linear buckling theory\n of thin shells .\n '
p744
sI745
S'<TITLE>\n an automatic method for finding the greatest or least\n value function .\n '
p745
sI746
S'<TITLE>\n aeroelastic problems in connection with high speed\n flight .\n '
p746
sI747
S'<TITLE>\n bodt freedom flutter of ground launched rocket models\n at supersonic and high subsonic speeds .\n '
p747
sI748
S'<TITLE>\n subsonic aerodynamic flutter derivatives for wings and control surfaces,\n  /compressible and incompressible flow/\n '
p748
sI749
S'<TITLE>\n the aerodynamic effects of aspect ratio and sweepback\n on wing flutter .\n '
p749
sI750
S'<TITLE>\n transonic flow in two dimensional and axially symmetrical\n nozzles .\n '
p750
sI751
S'<TITLE>\n a note on the use of end plates to prevent three dimensional\n flow at the ends of bluff cylinders .\n '
p751
sI752
S'<TITLE>\n slender not-so-thin wing theory .\n '
p752
sI753
S'<TITLE>\n development of a quasi-steady approach to flutter and\n correlation with kernel-function results .\n '
p753
sI754
S'<TITLE>\n heat transfer through laminar boundary layers on semiinfinite\n cylinders of arbitrary cross section .\n '
p754
sI755
S'<TITLE>\n oscillatory derivative measurements on sting-mounted\n wind tunnel models method of test and results for pitch\n and yaw on a cambered ogee wing at mach numbers up\n to 2. 6.\n '
p755
sI756
S'<TITLE>\n further comments on the inversion of large structural matrices .\n '
p756
sI757
S'<TITLE>\n an investigation of the flow about a plane half-wing\n of cropped delta planform and 6( symmetrical section\n at stream mach numbers between 0. 8 and 1. 41 .\n '
p757
sI758
S'<TITLE>\n the lower bound of attainable sonic-boom over-pressure\n and design methods of approaching this limit .\n '
p758
sI759
S'<TITLE>\n stability investigation of a blunted cone and a blunted\n ogive with a flared cylinder afterbody at mach numbers\n from 0. 30 to 2. 85\n '
p759
sI760
S'<TITLE>\n inelastic buckling of initially imperfect cylindrical\n shells subject to axial compression .\n '
p760
sI761
S'<TITLE>\n buckling of sandwich under normal pressure .\n '
p761
sI762
S'<TITLE>\n allowable axial loads and bending moments for inelastic structures\n under nonuniform temperature distribution .\n '
p762
sI763
S'<TITLE>\n effects of internal pressure on the buckling of circular-cylindrical\n shells under bending.\n '
p763
sI764
S'<TITLE>\n breathing vibrations of a circular shell with an internal\n liquid .\n '
p764
sI765
S'<TITLE>\n clamped short oval cylindrical shells under hydrostatic\n pressure .\n '
p765
sI766
S'<TITLE>\n experimental investigation at mach number of 3. 0 of\n effects of thermal stress and buckling on flutter characteristics\n of flat single-bay panels of length-width ratio 0. 96 .\n '
p766
sI767
S'<TITLE>\n mathematical techniques applying to the thermal fatigue behaviour\n of high temperature alloys .\n '
p767
sI768
S'<TITLE>\n formulae for use with the fatigue load meter in the\n assessment of wing fatigue life .\n '
p768
sI769
S'<TITLE>\n local circumferential buckling of thin circular cylindrical\n shells .\n '
p769
sI770
S'<TITLE>\n the flow of a compressible fluid past a sphere .\n '
p770
sI771
S'<TITLE>\n on the flow of a compressible fluid past a sphere .\n '
p771
sI772
S'<TITLE>\n an experimental study of jet-flap compressor blades .\n '
p772
sI773
S'<TITLE>\n q . app . math . 7, 1950, 381 . experiments on porous-wall\n cooling and flow separation control in a supersonic\n nozzle .\n '
p773
sI774
S'<TITLE>\n general characteristics of the flow through nozzles\n at near critical speeds .\n '
p774
sI775
S'<TITLE>\n studies on two dimensional flows of compressible fluid.\n '
p775
sI776
S'<TITLE>\n force measurements on square and dodecagonal sectional\n cylinders at high reynolds numbers .\n '
p776
sI777
S'<TITLE>\n a technique for rendering approximate solutions to\n physical problems uniformly valid .\n '
p777
sI778
S'<TITLE>\n an integral related to the radiation integrals .\n '
p778
sI779
S'<TITLE>\n calculation and compilation of the unsteady lift functions for a rigid\n wing subjected to sinusoidal gusts and to sinusoidal sinking oscillations\n .\n '
p779
sI780
S'<TITLE>\n the transonic characteristics of 38 cambered rectangular\n wings of varying aspect ratio and thickness as determined\n by transonic-bump technique .\n '
p780
sI781
S'<TITLE>\n use of subsonic kernel function in an influence-coefficient method of\n aeroelastic analysis and some comparisons with experiment .\n '
p781
sI782
S'<TITLE>\n calculated subsonic span loads and resulting stability derivatives of\n unswept and 45degree sweptback tail surfaces in sideslip and steady roll\n '
p782
sI783
S'<TITLE>\n a method for calculating the subsonic steady-state loading on an airplane\n with a wing of arbitrary planform and stiffness .\n '
p783
sI784
S'<TITLE>\n heat transfer through the laminar boundary layer on\n a circular cylinder in axial incompressible flow .\n '
p784
sI785
S'<TITLE>\n the flow of fluid along cylinders .\n '
p785
sI786
S'<TITLE>\n the skin friction on infinite cylinders moving parallell to their length\n '
p786
sI787
S"<TITLE>\n rayleigh's problem for a cylinder of arbitrary shape .\n "
p787
sI788
S'<TITLE>\n an approximate boundary layer theory for semi-infinite cylinders of\n arbitrary cross-section .\n '
p788
sI789
S'<TITLE>\n a further note on the calculation of heat transfer\n through the axisymmetrical laminar boundary layer on\n a circular cylinder .\n '
p789
sI790
S'<TITLE>\n a wind-tunnel test technique for measuring the dynamic rotary\n stability derivatives at subsonic and supersonic speeds .\n '
p790
sI791
S"<TITLE>\n measurements at mach numbers up to 2. 8 of the longitudinal\n characteristics of one plane and three cambered slender\n 'ogee' wings .\n "
p791
sI792
S'<TITLE>\n some low speed problems of high speed aircraft .\n '
p792
sI793
S'<TITLE>\n the flow pattern on a tapered sweptback wing at mach numbers between 0.6\n  and 1.6 .\n '
p793
sI794
S'<TITLE>\n experiments with a tapered swept-back wing of warren 12 planform at mach\n  numbers between 0.6 and 1.6 .\n '
p794
sI795
S'<TITLE>\n the operation of the npl 18in x 14in. wind tunnel in the transonic speed\n  range .\n '
p795
sI796
S'<TITLE>\n an investigation at transonic speeds of the performance of various\n distributed roughness bands used to cause boundary layer transition\n near the leading edge of a cropped delta half-wing .\n '
p796
sI797
S'<TITLE>\n a study of the effect of leading-edge modifications on the flow over\n a 50degree sweptback wing at transonic speeds .\n '
p797
sI798
S'<TITLE>\n interaction between shock waves and boundary layers, with a note on the\n effects of the interaction of the performance of supersonic intakes .\n '
p798
sI799
S'<TITLE>\n some effects of wind-tunnel interference observed in tests on twodimensional\n aerofoils at high subsonic and transonic speeds .\n '
p799
sI800
S'<TITLE>\n wall interference at transonic speeds on a hemisphere cylinder model .\n '
p800
sI801
S'<TITLE>\n experimental study of the equivalence of transonic\n flow about slender cone-cylinders of circular and elliptic\n cross section .\n '
p801
sI802
S'<TITLE>\n the behaviour of supersonic flow past a body of revolution\n far from the axis .\n '
p802
sI803
S'<TITLE>\n the shock pattern of a wing-body combination far from\n the flight path .\n '
p803
sI804
S'<TITLE>\n a flight test investigation of the sonic boom .\n '
p804
sI805
S'<TITLE>\n ground measurements of the shock wave noise from airplanes\n in level flight at mach numbers to 1. 4 and at altitudes\n to 45,000 feet .\n '
p805
sI806
S'<TITLE>\n ground measurements of airplane shock wave noise at\n mach numbers to 2, and at altitudes of 60,000 feet .\n '
p806
sI807
S'<TITLE>\n ground measurements of the shock wave noise from supersonic\n bomber airplanes in the altitude range from 30,000\n to 50,000 feet .\n '
p807
sI808
S'<TITLE>\n an investigation of some aspects of the sonic boom\n by means of wind tunnel measurements of pressures about\n several bodies at a mach number of 2. 01 .\n '
p808
sI809
S'<TITLE>\n an investigation of the influence of lift on sonic-boom\n intensity by means of wind tunnel measurements of the\n pressure fields of several wing-body combinations at\n a mach number of 2. 01 .\n '
p809
sI810
S'<TITLE>\n the shock wave noise problem of supersonic aircraft\n in steady flight .\n '
p810
sI811
S'<TITLE>\n an investigation of lifting effects on the intensity\n of sonic booms .\n '
p811
sI812
S'<TITLE>\n investigation of two bluff shapes in axial free flight\n over a mach number range from 0. 35 to 2. 15 .\n '
p812
sI813
S'<TITLE>\n the motion of rolling symmetrical missiles referred\n to a body-axis system .\n '
p813
sI814
S'<TITLE>\n stability derivatives of cones at supersonic speeds .\n '
p814
sI815
S'<TITLE>\n investigation of several blunt bodies to determine\n trans- onic aerodynamic characteristics including effects\n of spinning and of extendible afterbody flaps and some\n measurements of unsteady base pressures .\n '
p815
sI816
S'<TITLE>\n experimental investigation at a mach number of 3. 11\n of the lift, drag and pitching moment characteristics\n of a number of blunt low-fineness-ratio bodies .\n '
p816
sI817
S'<TITLE>\n loading paths and the incremental stress law .\n '
p817
sI818
S'<TITLE>\n a quantitative comparison of flow and deformation theories\n of plasticity .\n '
p818
sI819
S'<TITLE>\n stresses in the plastic range around a normally loaded\n circular hole in an infinite sheet .\n '
p819
sI820
S'<TITLE>\n theories of plastic buckling .\n '
p820
sI821
S'<TITLE>\n inelastic column theory .\n '
p821
sI822
S'<TITLE>\n effects of imperfections on buckling of thin cylinders\n and columns under axial compression .\n '
p822
sI823
S'<TITLE>\n plastic torsional buckling strength of cylinders including\n the effects of imperfections .\n '
p823
sI824
S'<TITLE>\n on the concept of stability of inelastic systems .\n '
p824
sI825
S'<TITLE>\n inelastic instability and incremental theories of plasticity .\n '
p825
sI826
S'<TITLE>\n small bending and stretching of sandwich type shells .\n '
p826
sI827
S'<TITLE>\n a nonlinear theory of bending and buckling of thin\n elastic shallow spherical shells .\n '
p827
sI828
S'<TITLE>\n stresses and small displacements of shallow spherical\n shells .\n '
p828
sI829
S'<TITLE>\n stability of thin-walled tubes under torsion .\n '
p829
sI830
S'<TITLE>\n nonlinear deflections of shallow spherical shells .\n '
p830
sI831
S'<TITLE>\n buckling of shallow shells under external pressure .\n '
p831
sI832
S'<TITLE>\n accelerating convergence of iteration processes .\n '
p832
sI833
S'<TITLE>\n a simple method of matric structural analysis, part\n iv, non-linear problems .\n '
p833
sI834
S'<TITLE>\n limit design for economical missile structures .\n '
p834
sI835
S'<TITLE>\n the problem of strain accumulation under thermal cycling .\n '
p835
sI836
S'<TITLE>\n analytical and experimental investigation of stress distributions in\n long flat plates subjected to lingitudinal loads and transverse temperature\n gradients .\n '
p836
sI837
S'<TITLE>\n inelastic behaviour of structures subjected to cyclic\n thermal and mechanical stressing conditions .\n '
p837
sI838
S'<TITLE>\n bending and compression tests of pressurised ring-stiffened\n cylinders .\n '
p838
sI839
S'<TITLE>\n the bending stability of thin-- walled unstiffened\n circular cylinders including the effects of internal\n pressure .\n '
p839
sI840
S'<TITLE>\n analysis of partly wrinkled membrane .\n '
p840
sI841
S'<TITLE>\n on the bending of circular cylindrical shells under\n pure bending .\n '
p841
sI842
S"<TITLE>\n an improvement on donnell's approximation for thin-walled\n circular cylinders .\n "
p842
sI843
S'<TITLE>\n a simplified method of elastic stability analysis for\n thin cylindrical shells .\n '
p843
sI844
S'<TITLE>\n flexural vibrations of the walls of thin cylindrical\n shells having freely supported ends .\n '
p844
sI845
S'<TITLE>\n the flexural vibrations of thin cylinders .\n '
p845
sI846
S'<TITLE>\n on the vibration of thin cylindrical shells under internal\n pressure .\n '
p846
sI847
S'<TITLE>\n experimental study of the vibrations of a circular\n cylindrical shell .\n '
p847
sI848
S'<TITLE>\n the effect of an internal compressible fluid column\n on the breathing vibrations of a thin pressurised cylindrical\n shell .\n '
p848
sI849
S'<TITLE>\n a theory of imperfection for the vibrations of elastic bodies of\n revolution .\n '
p849
sI850
S"<TITLE>\n remarks on donnell's equations .\n "
p850
sI851
S'<TITLE>\n energy expressions and differential equations for stress\n and displacement analysis of arbitrary cylindrical\n shells .\n '
p851
sI852
S'<TITLE>\n stress and displacement analysis of simply supported\n non- circular cylindrical shell under lateral pressure .\n '
p852
sI853
S"<TITLE>\n the accuracy of donnell's equations .\n "
p853
sI854
S'<TITLE>\n boundary-value problems of the thin-walled circular\n cylinder .\n '
p854
sI855
S'<TITLE>\n simplified formulas for boundary value problems of\n the thin-- walled circular cylinder .\n '
p855
sI856
S'<TITLE>\n some experimental studies of panel flutter at mach\n 1 .3.\n '
p856
sI857
S'<TITLE>\n experimental studies of flutter of buckled rectangular\n panels at mach numbers from 1. 2 to 3. 0 including\n effects of pressure differential and of panel width-length\n ratio .\n '
p857
sI858
S'<TITLE>\n experimental investigation at mach numbers 3. 0 of\n the effects of thermal stress and buckling on the flutter\n of four-bay aluminium alloy panels with length-width\n ratios of 10 .\n '
p858
sI859
S'<TITLE>\n flutter of aerodynamically heated aluminium-alloy and\n stainless steel panels with length-width ratio of 10\n at mach 3. 0.\n '
p859
sI860
S'<TITLE>\n test of an aerodynamically heated multi-- web wing\n structure (mw-1) in a free jet at mach number 2.\n '
p860
sI861
S"<TITLE>\n charts adapted from van driest's turbulent flat-plate\n theory for determining values of turbulent aerodynamic\n friction and heat transfer coefficients .\n "
p861
sI862
S'<TITLE>\n the phenomenon of change in buckle pattern in elastic\n structures .\n '
p862
sI863
S'<TITLE>\n loads and deformations of buckled rectangular plates .\n '
p863
sI864
S'<TITLE>\n status of flutter of flat and curved panels .\n '
p864
sI865
S'<TITLE>\n a study of the thermal fatigue behaviour of metals .\n  the effect of test conditions on nickel-base high\n temperature alloys .\n '
p865
sI866
S'<TITLE>\n regularities in creep and hot fatigue data .\n '
p866
sI867
S'<TITLE>\n low frequency fatigue of nimonic 90 . low frequency\n fatigue - a rheological approach .\n '
p867
sI868
S'<TITLE>\n design and operation of the n. g. t. e.  thermal shock\n analogue .\n '
p868
sI869
S"<TITLE>\n the calculation of transient temperature in turbine\n blades and tapered discs using biot's variational method .\n "
p869
sI870
S'<TITLE>\n effect of rheological behaviour on thermal stresses .\n '
p870
sI871
S'<TITLE>\n steady-state creep through dislocation climb .\n '
p871
sI872
S'<TITLE>\n fundamentals of boundary layer heat transfer with streamwise\n temperature variations .\n '
p872
sI873
S'<TITLE>\n lagrangian thermodynamics of heat transfer in systems\n including fluid motion .\n '
p873
sI874
S'<TITLE>\n the use of models for the determination of critical flutter speeds .\n '
p874
sI875
S'<TITLE>\n models for aeroelastic investigation .\n '
p875
sI876
S'<TITLE>\n on flutter testing in high speed wind tunnels .\n '
p876
sI877
S'<TITLE>\n the influence of aerodynamic heating on the flexural\n rigidity of a thin wing .\n '
p877
sI878
S'<TITLE>\n experimental model techniques and equipment for flutter\n investigations .\n '
p878
sI879
S'<TITLE>\n flutter model testing at transonic speeds .\n '
p879
sI880
S'<TITLE>\n the design and testing of supersonic flutter models .\n '
p880
sI881
S'<TITLE>\n cumulative damage in fatigue .\n '
p881
sI882
S'<TITLE>\n the variation of gust frequency with gust velocity\n and altitude .\n '
p882
sI883
S'<TITLE>\n correlated fatigue data for aircraft structural joints .\n '
p883
sI884
S'<TITLE>\n the estimation of fatigue damage on structural elements .\n '
p884
sI885
S'<TITLE>\n buckling of thin cylindrical shells under hoop stresses\n varying in axial direction .\n '
p885
sI886
S'<TITLE>\n thermal buckling of clamped cylindrical shells .\n '
p886
sI887
S'<TITLE>\n buckling due to thermal stress of cylindrical shells\n subjected to axial temperature distributions .\n '
p887
sI888
S'<TITLE>\n combinations of temperature and axial compression required\n for buckling of a ring-stiffened cylinder .\n '
p888
sI889
S'<TITLE>\n a simplified method of elastic stability analysis for\n thin cylindrical shells .\n '
p889
sI890
S"<TITLE>\n comments on 'thermal buckling of clamped cylindrical shells' .\n "
p890
sI891
S'<TITLE>\n buckling of a finite length cylindrical shell under\n a circumferential band of pressure .\n '
p891
sI892
S'<TITLE>\n research on unsteady flow .\n '
p892
sI893
S'<TITLE>\n a new design of pitot-static tube with a discussion\n of pitot-static tubes and their calibration factors .\n '
p893
sI894
S'<TITLE>\n flutter of a two dimensional simply supported buckled\n panel with elastic restraint against edge displacement .\n '
p894
sI895
S'<TITLE>\n the airforces on the low aspect ratio rectangular wing\n oscillating in sonic flow .\n '
p895
sI896
S'<TITLE>\n the calculation of loads on a supersonic weapon in\n the steady circling case .\n '
p896
sI897
S'<TITLE>\n some results on buckling and postbuckling of cylindrical\n shells .\n '
p897
sI898
S'<TITLE>\n a survey of buckling theory and experiment for circular\n conical shells of constant thickness .\n '
p898
sI899
S'<TITLE>\n aerodynamic effects on boundary layer unsteadiness .\n '
p899
sI900
S'<TITLE>\n some measurements in the vortex flow generated by a\n sharp leading edge having 65 sweep .\n '
p900
sI901
S'<TITLE>\n long slender delta wings with leading edge separation .\n '
p901
sI902
S'<TITLE>\n some current and proposed investigations into the flow\n for slender delta and other wings in unsteady motion .\n '
p902
sI903
S'<TITLE>\n two dimensional transonic unsteady flow with shock\n waves .\n '
p903
sI904
S'<TITLE>\n calibration of the standard pitot-static head used\n in the rae low speed wind tunnels .\n '
p904
sI905
S'<TITLE>\n comparative tests of pitot-static tubes .\n '
p905
sI906
S'<TITLE>\n review of the pitot tube .\n '
p906
sI907
S'<TITLE>\n cavitation and pressure distribution\n head forms at zero angle of yaw .\n '
p907
sI908
S'<TITLE>\n random vibration .\n '
p908
sI909
S'<TITLE>\n the effect of jet noise on aircraft structures .\n '
p909
sI910
S'<TITLE>\n natural frequencies of continuous beams of uniform\n span length .\n '
p910
sI911
S'<TITLE>\n experimental study of the random vibrations of an aircraft\n structure excited by jet noise .\n '
p911
sI912
S'<TITLE>\n the axisymmetric free-convection temperature field\n along a vertical thin cylinder .\n '
p912
sI913
S'<TITLE>\n vibrations of beams on many supports .\n '
p913
sI914
S'<TITLE>\n transtability flutter of supersonic aircraft panels .\n '
p914
sI915
S'<TITLE>\n a buckled plate in a supersonic stream .\n '
p915
sI916
S'<TITLE>\n the flow around oscillating low aspect ratio wings at transonic\n speeds .\n '
p916
sI917
S'<TITLE>\n a method of calculating the short period longitudinal\n stability derivatives of a wing in linearised unsteady\n compressible flow .\n '
p917
sI918
S'<TITLE>\n on the low aspect ratio oscillating rectangular wing\n in supersonic flow .\n '
p918
sI919
S'<TITLE>\n theoretical studies of unsteady transonic flow . part iii . the oscillating\n low aspect ratio rectangular wing .\n '
p919
sI920
S'<TITLE>\n supersonic flow over an inclined wing of zero aspect ratio .\n '
p920
sI921
S'<TITLE>\n slender-body theory-review and extension .\n '
p921
sI922
S'<TITLE>\n supersonic flow past slender bodies of revolution,\n slope of whose median section is discontinuous .\n '
p922
sI923
S'<TITLE>\n methods for estimating lift interference of wing-body\n combinations at supersonic speeds .\n '
p923
sI924
S'<TITLE>\n a method for calculating the lift and centre of pressure\n of wing-body-tail combinations at subsonic, transonic\n speeds .\n '
p924
sI925
S'<TITLE>\n factors affecting loads at hypersonic speeds .\n '
p925
sI926
S'<TITLE>\n post buckling behaviour of circular cylinderical shells\n under hydrostatic pressure .\n '
p926
sI927
S'<TITLE>\n investigation of normal force distributions and wake\n vortex characteristics of bodies of revolution at supersonic\n speeds .\n '
p927
sI928
S'<TITLE>\n a new theory for the buckling of thin cylinders under\n axial compression and bending .\n '
p928
sI929
S'<TITLE>\n stability of the cylindrical shell of variable curvature .\n '
p929
sI930
S'<TITLE>\n general theory of large deflections of thin shells\n with special applications to conical shells .\n '
p930
sI931
S'<TITLE>\n stability equations for conical shells .\n '
p931
sI932
S'<TITLE>\n buckling of circular cones under axial compression .\n '
p932
sI933
S'<TITLE>\n the characteristics of roughness from insects as observed\n for two-dimensional, incompressible flow past airfoils .\n '
p933
sI934
S'<TITLE>\n stability of cylindrical and conical shells of circular\n cross section, with simultaneous action of axial compression\n and external normal pressure .\n '
p934
sI935
S'<TITLE>\n buckling of thin single- and multi-layer conical and cylindrical\n shells with rotationally symmetric stresses .\n '
p935
sI936
S'<TITLE>\n a donnell-type theory for asymmetrical bending and\n buckling of thin conical shells .\n '
p936
sI937
S'<TITLE>\n on the buckling of truncated conical shells in torsion .\n '
p937
sI938
S'<TITLE>\n calculations for the stability of thin conical frustums\n subjected to external uniform hydrostatic pressure\n and axial loads .\n '
p938
sI939
S'<TITLE>\n some explicit solutions for constant-temp . magnetogas\n dynamic channel flow .\n '
p939
sI940
S'<TITLE>\n of a turbulent free shear layer .\n '
p940
sI941
S'<TITLE>\n viscous compressible and incompressible flow in slender\n channels .\n '
p941
sI942
S'<TITLE>\n secondary gas injection in a conical rocket nozzle .\n '
p942
sI943
S'<TITLE>\n compressible free shear layer with finite initial thickness .\n '
p943
sI944
S'<TITLE>\n one dimensional heat conduction through the skin of\n a vehicle upon entering a planetary atmosphere at constant\n velocity and entry angle .\n '
p944
sI945
S'<TITLE>\n method for design of pump impellers using a high speed\n digital computer .\n '
p945
sI946
S'<TITLE>\n exploratory investigation of the effect of a forward\n facing jet on the bow shock of a blunt body in a mach\n number 6 free stream .\n '
p946
sI947
S'<TITLE>\n static aerodynamic characteristics of a short blunt\n 10 semi-vertex angle cone at a mach number of 15 in\n helium .\n '
p947
sI948
S'<TITLE>\n panel flutter tests on full scale x-15 lower vertical\n stabilizer at mach number of 3. 0.\n '
p948
sI949
S'<TITLE>\n charts for equilibrium flow properties of air in hypervelocity\n nozzles .\n '
p949
sI950
S'<TITLE>\n comparison of theoretical and experimental creep buckling\n times of initially straight, centrally loaded columns .\n '
p950
sI951
S'<TITLE>\n a unified theory of creep buckling under normal loads .\n '
p951
sI952
S'<TITLE>\n study of creep collapse of a long circular cylindrical\n shell under various distributed force systems .\n '
p952
sI953
S'<TITLE>\n vibrations of infinitely long cylindrical shells under\n initial stress .\n '
p953
sI954
S'<TITLE>\n analysis of stress at several junctions in pressurized\n shells .\n '
p954
sI955
S'<TITLE>\n the membrane approach to bending instability of pressureized\n cylindrical shells .\n '
p955
sI956
S'<TITLE>\n elastic stability of simply supported corrugated core\n sand- wich cylinders .\n '
p956
sI957
S'<TITLE>\n axisymmetric snap buckling of conical shells .\n '
p957
sI958
S'<TITLE>\n air scooping vehicle .\n '
p958
sI959
S'<TITLE>\n heat transfer in separated flows .\n '
p959
sI960
S'<TITLE>\n investigation of free turbulent mixing .\n '
p960
sI961
S'<TITLE>\n compressible two dimensional jet mixing at constant\n pressure .\n '
p961
sI962
S'<TITLE>\n contributions to the theory of heat transfer through\n a laminar boundary layer .\n '
p962
sI963
S'<TITLE>\n a variational principle for convection of heat .\n '
p963
sI964
S'<TITLE>\n on the theory of discharge coefficients for round entrance flowmeters\n and venturis .\n '
p964
sI965
S'<TITLE>\n analytic determination of discharge coefficients of flow nozzles .\n '
p965
sI966
S'<TITLE>\n on fully developed channel flows,. some solutions and limitations, and\n effects of compressibility, variable properties, and body forces .\n '
p966
sI967
S'<TITLE>\n a study of laminar compressible viscous pipe flow accelerated by an\n axial body force, with application to magnetogasdynamics .\n '
p967
sI968
S'<TITLE>\n rocket propulsion systems for interplanetary flight .\n '
p968
sI969
S'<TITLE>\n on the use of side-jets as control devices .\n '
p969
sI970
S'<TITLE>\n loads induced on a flat plate wing by an air jet exhausting perpendicularly\n through the wing and normal to a free-stream flow of mach\n number 2.0 .\n '
p970
sI971
S'<TITLE>\n surface pressure distributions with a sonic jet normal to adjacent flat\n surfaces at mach 2.92 to 6.4 .\n '
p971
sI972
S'<TITLE>\n aerodynamic interaction effects ahead of a sonic jet exhausting perpendicularly\n form a flat plate into a mach number 6 free stream .\n '
p972
sI973
S'<TITLE>\n interaction effects produced by jet exhausting laterally near base of\n ogive-cylinder model in supersonic main stream .\n '
p973
sI974
S'<TITLE>\n approximate analysis of thrust vector control by fluid injection .\n '
p974
sI975
S'<TITLE>\n one dimensional flows of an imperfect diatomic gas .\n '
p975
sI976
S'<TITLE>\n turbulent diffusion in the wake of a blunt nosed body\n at hypersonic speeds .\n '
p976
sI977
S'<TITLE>\n concerning some solutions of the boundary layer equations\n in hydrodynamics .\n '
p977
sI978
S'<TITLE>\n temperature profiles inafinite solid with moving boundary .\n '
p978
sI979
S'<TITLE>\n correlation of base pressure and wake structure of\n sharp and blunt-nose cones with reynolds number based\n on boundary layer momentum thickness .\n '
p979
sI980
S'<TITLE>\n a method of computing the transient temperature of thick walls from\n arbitrary variation of adiabatic-wall temperature and heat-transfer coefficient\n .\n '
p980
sI981
S'<TITLE>\n solutions to the heat-conduction equation with time dependent boundary\n conditions .\n '
p981
sI982
S'<TITLE>\n the temperature history in a thick skin subjected to laminar heating\n during entry into the atmosphere .\n '
p982
sI983
S"<TITLE>\n addendum to 'heat transfer to satellite vehicles re-entering the atmosphere\n .\n "
p983
sI984
S'<TITLE>\n method of analysis for compressible flow through mixed-flow centrifugal\n impellers of arbitrary design .\n '
p984
sI985
S'<TITLE>\n a rapid approximate method for the design of hub shroud profiles of\n centrifugal impellers of given blade shape .\n '
p985
sI986
S'<TITLE>\n design and test of mixed-flow impellers, viii - comparison of experimental\n results for three impellers with shroud redesigned by rapid\n approximate method .\n '
p986
sI987
S'<TITLE>\n a general theory of three dimensional flow in subsonic and supersonic\n turbo-machines of axial-radial-and mixed-flow types .\n '
p987
sI988
S'<TITLE>\n nonviscous flow through a pump impeller on a blade-to-blade surface of\n revolution .\n '
p988
sI989
S'<TITLE>\n incompressible nonviscous blade-to-blade flow through a pump rotor with\n splitter vanes .\n '
p989
sI990
S'<TITLE>\n a rapid approximate method for determining velocity distribution on impeller\n blades of centrifugal compressors .\n '
p990
sI991
S'<TITLE>\n wing-flow study of pressure drag reduction at transonic speed by projecting\n a jet of air from the nose of a prolate spheroid of fineness\n ratio 6 .\n '
p991
sI992
S'<TITLE>\n the effects of a small jet of air exhausting from the nose of a body\n of revolution in supersonic flow .\n '
p992
sI993
S'<TITLE>\n  the extent of the jet interference flow fields .\n jet effects on cylindrical afterbodies housing sonic and supersonic\n nozzles which exhaust against a supersonic stream at angles of attack\n from 90degree to 180degree .\n '
p993
sI994
S'<TITLE>\n investigation of a retrocket exhausting from the nose of a blunt body\n into a supersonic free stream .\n '
p994
sI995
S'<TITLE>\n '
p995
sI996
S'<TITLE>\n extension of boundary layer separation criteria to\n a m=6 .5 utilizing flat plates with forward-facing\n steps .\n '
p996
sI997
S'<TITLE>\n experimental and theoretical studies of axisymmetric free jets .\n '
p997
sI998
S'<TITLE>\n equations, tables and charts for compressible flow .\n '
p998
sI999
S'<TITLE>\n static aerodynamic characteristics of short blunt cones\n with various nose and base cone angles at mach numbers\n of 0. 6 to 5. 5 and angles of attack to 180 .\n '
p999
sI1000
S'<TITLE>\n free-flight measurements of the static and dynamic\n stability and drag of a 10 blunted cone at mach numbers\n 3 .5 and 8 .5 .\n '
p1000
sI1001
S'<TITLE>\n wind tunnel investigation of the static and dynamic stability characteristics\n of a 10degree semivertex angle blunted cone .\n '
p1001
sI1002
S'<TITLE>\n preliminary investigations of spiked bodies at hypersonic speeds .\n '
p1002
sI1003
S'<TITLE>\n free-flight measurements of the static and dynamic\n '
p1003
sI1004
S'<TITLE>\n free-flight measurements of the static and dynamic\n '
p1004
sI1005
S'<TITLE>\n free-flight measurements of the static and dynamic\n '
p1005
sI1006
S'<TITLE>\n free-flight measurements of the static and dynamic\n '
p1006
sI1007
S'<TITLE>\n free-flight measurements of the static and dynamic\n '
p1007
sI1008
S'<TITLE>\n free-flight measurements of the static and dynamic\n '
p1008
sI1009
S'<TITLE>\n free-flight measurements of the static and dynamic\n '
p1009
sI1010
S'<TITLE>\n free-flight measurements of the static and dynamic\n '
p1010
sI1011
S'<TITLE>\n free-flight measurements of the static and dynamic\n '
p1011
sI1012
S'<TITLE>\n principles of creep buckling weight-strength analysis\n of aircraft structures .\n '
p1012
sI1013
S'<TITLE>\n principles of creep buckling weight-strength analysis\n '
p1013
sI1014
S'<TITLE>\n principles of creep buckling weight-strength analysis\n '
p1014
sI1015
S'<TITLE>\n principles of creep buckling weight-strength analysis\n '
p1015
sI1016
S'<TITLE>\n principles of creep buckling weight-strength analysis\n '
p1016
sI1017
S'<TITLE>\n note on creep buckling of columns .\n '
p1017
sI1018
S'<TITLE>\n note on creep buckling of columns .\n '
p1018
sI1019
S'<TITLE>\n note on creep buckling of columns .\n '
p1019
sI1020
S'<TITLE>\n note on creep buckling of columns .\n '
p1020
sI1021
S'<TITLE>\n note on creep buckling of columns .\n '
p1021
sI1022
S'<TITLE>\n note on creep buckling of columns .\n '
p1022
sI1023
S'<TITLE>\n note on creep buckling of columns .\n '
p1023
sI1024
S'<TITLE>\n note on creep buckling of columns .\n '
p1024
sI1025
S'<TITLE>\n note on creep buckling of columns .\n '
p1025
sI1026
S'<TITLE>\n note on creep buckling of columns .\n '
p1026
sI1027
S'<TITLE>\n note on creep buckling of columns .\n '
p1027
sI1028
S'<TITLE>\n note on creep buckling of columns .\n '
p1028
sI1029
S'<TITLE>\n note on creep buckling of columns .\n '
p1029
sI1030
S'<TITLE>\n note on creep buckling of columns .\n '
p1030
sI1031
S'<TITLE>\n note on creep buckling of columns .\n '
p1031
sI1032
S'<TITLE>\n on the conservativeness of various distributed force systems .\n '
p1032
sI1033
S'<TITLE>\n the design of tubes under uniform external pressure on the\n basis of assumed inaccuracies .\n '
p1033
sI1034
S'<TITLE>\n note on creep buckling of columns .\n '
p1034
sI1035
S'<TITLE>\n note on creep buckling of columns .\n '
p1035
sI1036
S'<TITLE>\n on transverse vibrations of thin, shallow elastic shells .\n '
p1036
sI1037
S'<TITLE>\n on transverse vibrations of thin, shallow elastic shells .\n '
p1037
sI1038
S'<TITLE>\n on transverse vibrations of thin, shallow elastic shells .\n '
p1038
sI1039
S'<TITLE>\n on transverse vibrations of thin, shallow elastic shells .\n '
p1039
sI1040
S'<TITLE>\n on transverse vibrations of thin, shallow elastic shells .\n '
p1040
sI1041
S'<TITLE>\n analysis of stresses in the elements of shell structure .\n '
p1041
sI1042
S'<TITLE>\n on transverse vibrations of thin, shallow elastic shells .\n '
p1042
sI1043
S'<TITLE>\n on transverse vibrations of thin, shallow elastic shells .\n '
p1043
sI1044
S'<TITLE>\n on the theory of thin elastic shells .\n '
p1044
sI1045
S'<TITLE>\n the bending strength of pressurized cylinders .\n '
p1045
sI1046
S'<TITLE>\n the bending strength of pressurized cylinders .\n '
p1046
sI1047
S'<TITLE>\n the bending strength of pressurized cylinders .\n '
p1047
sI1048
S'<TITLE>\n a small deflection theory for curved sandwich plates .\n '
p1048
sI1049
S'<TITLE>\n elastic constants for corrugated core sandwich plates .\n '
p1049
sI1050
S'<TITLE>\n compressive buckling of simply supported curved plates\n and cylinders of sandwich construction .\n '
p1050
sI1051
S'<TITLE>\n the stability of thin-walled unstiffened circular cylinders\n under axial compression including the effects of internal\n pressure .\n '
p1051
sI1052
S'<TITLE>\n recent advances in the buckling of thin shells .\n '
p1052
sI1053
S'<TITLE>\n spherical cap snapping .\n '
p1053
sI1054
S'<TITLE>\n iterative solutions for the non-linear bending of circular\n plates .\n '
p1054
sI1055
S'<TITLE>\n non-linear bending and buckling of circular plates .\n '
p1055
sI1056
S'<TITLE>\n axisymmetric large deflections of circular plates subjected\n to thermal and mechanical load .\n '
p1056
sI1057
S'<TITLE>\n the uniform section disk spring .\n '
p1057
sI1058
S'<TITLE>\n the conical disk spring .\n '
p1058
sI1059
S'<TITLE>\n the nonlinear conical spring .\n '
p1059
sI1060
S'<TITLE>\n buckled states of circular plates .\n '
p1060
sI1061
S'<TITLE>\n turbulent mixing of a rocket exhaust jet with a supersonic stream including\n chemical reactions .\n '
p1061
sI1062
S'<TITLE>\n an experimental and theoretical investigation of second-order\n wing-body interference at high mach number .\n '
p1062
sI1063
S'<TITLE>\n on obtaining solutions to the navier-stokes equations\n with high speed digital computers .\n '
p1063
sI1064
S'<TITLE>\n propeller slipstream effects as determined from wing\n pressure distribution on a large-scale six-propeller\n vtol model at static thrust .\n '
p1064
sI1065
S'<TITLE>\n a free-flight investigation of ablation of a blunt\n body to a mach number of 13 .1.\n '
p1065
sI1066
S'<TITLE>\n wind tunnel measurements of aerodynamic damping derivatives\n of a launch vehicle vibrating in free-free bending\n modes at mach numbers from 0. 70 to 2. 87 and comparisons\n with theory .\n '
p1066
sI1067
S'<TITLE>\n plastic stability theory of geometrically orthotropic\n plates and cylindrical shells .\n '
p1067
sI1068
S'<TITLE>\n instability analysis of cylindrical shells under hydrostatic\n pressure .\n '
p1068
sI1069
S'<TITLE>\n design and testing of honeycomb sandwich cylinders\n under axial compression .\n '
p1069
sI1070
S'<TITLE>\n buckling of orthotropic and stiffened conical shells .\n '
p1070
sI1071
S'<TITLE>\n stability of thin torispherical shells under uniform\n internal pressure .\n '
p1071
sI1072
S'<TITLE>\n ignition and combustion in a laminar mixing zone .\n '
p1072
sI1073
S'<TITLE>\n a practical method for numerical evaluation of solutions\n of partial differential equations of the heat-conduction\n type .\n '
p1073
sI1074
S'<TITLE>\n theoretical and experimental investigation of second-order supersonic\n wing-body interference .\n '
p1074
sI1075
S'<TITLE>\n an experimental and theoretical investigation of second-order supersonic\n  wing-body interference, for a non-lifting body with wings at incidence\n '
p1075
sI1076
S'<TITLE>\n an approximate method for determining the displacement effects and\n viscous drag of laminar boundary layers in two-dimensional hypersonic\n flow .\n '
p1076
sI1077
S'<TITLE>\n a method of solution with tabulated results for the attached oblique\n shock wave system for surfaces at various angles of attack, sweep, and\n dihedral in an equilibrium real gas including the atmosphere .\n '
p1077
sI1078
S'<TITLE>\n the steady flow of a viscous fluid past a circular cylinder at reynolds\n numbers 40 and 44 .\n '
p1078
sI1079
S'<TITLE>\n finite difference formulae for the square lattices .\n '
p1079
sI1080
S'<TITLE>\n viscous flow round a sphere at low reynolds numbers . /l40/\n '
p1080
sI1081
S'<TITLE>\n numerical solution of the navier-stokes equations for the flow around a\n circular cylinder at reynolds number 40 .\n '
p1081
sI1082
S'<TITLE>\n the flow past pitot tube at low reynolds numbers, part 1-dash the numerical\n solution of the navier-stokes equations for steady viscous\n axisymmetric flow, part 2-dash the effects of viscosity and orifice\n size on a pitot tube at low reynolds numbers .\n '
p1082
sI1083
S'<TITLE>\n an investigation of fluid flow in two dimensions .\n '
p1083
sI1084
S'<TITLE>\n the flow past circular cylinders at low speeds .\n '
p1084
sI1085
S'<TITLE>\n note on the convergence of numerical solutions of the navier-stokes\n equations .\n '
p1085
sI1086
S'<TITLE>\n a note on the numerical solution of fourth order differential\n equations .\n '
p1086
sI1087
S'<TITLE>\n convergence rates of iterative treatments of partial differential equations\n .\n '
p1087
sI1088
S'<TITLE>\n iterative methods for solving partial difference equations of elliptic\n type .\n '
p1088
sI1089
S'<TITLE>\n aerodynamic characteristics of propeller-driven vtol\n aircraft .\n '
p1089
sI1090
S'<TITLE>\n pressure distribution and force measurements on a vtol\n tilting wing-propeller model . pt .ii, analysis of\n results .\n '
p1090
sI1091
S'<TITLE>\n data from a static thrust investigation of a large\n scale general research vtol-stol model in ground effect .\n '
p1091
sI1092
S'<TITLE>\n wing-nacelle-propeller interference for wings of various\n spans . force and pressure distribution tests .\n '
p1092
sI1093
S'<TITLE>\n induced interference effects on jet and buried-fan\n vtol configurations in transition .\n '
p1093
sI1094
S'<TITLE>\n investigation of the effects of ground proximity and\n propeller position on the effectiveness of a wing with\n large chord slotted flaps in redirecting propeller\n slipstream downward for vertical take-off .\n '
p1094
sI1095
S'<TITLE>\n investigation of effectiveness of large-chord slotted\n flaps in deflecting propeller slipstreams downward\n for vertical take-off and low-speed flight .\n '
p1095
sI1096
S'<TITLE>\n qualitative measurements of the effective heats of\n ablation of several materials in supersonic air jets\n at stagnation temperature up to 11,000 f.\n '
p1096
sI1097
S'<TITLE>\n experimental ablation cooling .\n '
p1097
sI1098
S'<TITLE>\n an experimental investigation of ablating material\n at low and high enthalpy potentials .\n '
p1098
sI1099
S'<TITLE>\n a theoretical study of stagnation point ablation .\n '
p1099
sI1100
S'<TITLE>\n an analytical investigation of ablation .\n '
p1100
sI1101
S'<TITLE>\n a sensor for obtaining ablation rates .\n '
p1101
sI1102
S'<TITLE>\n a five-stage solid fuel sounding rocket system .\n '
p1102
sI1103
S'<TITLE>\n pressures, densities and temperatures in the upper atmosphere .\n '
p1103
sI1104
S'<TITLE>\n aerodynamic heating of blunt nose shapes at mach numbers up to 14 .\n '
p1104
sI1105
S'<TITLE>\n numerical solutions for supersonic flow of an ideal\n gas around blunt two-dimensional bodies .\n '
p1105
sI1106
S'<TITLE>\n free-flight observation of a separated turbulent flow\n including heat transfer up to mach 8. 5.\n '
p1106
sI1107
S'<TITLE>\n the flow field over blunted flat plates and its effect\n on turbulent boundary growth and heat transfer at a\n mach number of 4. 7.\n '
p1107
sI1108
S'<TITLE>\n a study of second-order supersonic flow theory .\n '
p1108
sI1109
S'<TITLE>\n unsteady laminar compressible boundary layers on an\n infinite plate with suction or injection .\n '
p1109
sI1110
S'<TITLE>\n on supersonic flow past a slightly yawing cone .\n '
p1110
sI1111
S'<TITLE>\n some research on high speed flutter .\n '
p1111
sI1112
S'<TITLE>\n unsteady aerodynamic forces on a slender body of revolution\n in supersonic flow .\n '
p1112
sI1113
S'<TITLE>\n an electronic apparatus for automatic recording of\n the logarithmic decrement and frequency for oscillations\n in the audio and subaudio frequency range .\n '
p1113
sI1114
S'<TITLE>\n steady and fluctuating pressures at transonic speeds\n on two space-vehicle payload shapes .\n '
p1114
sI1115
S'<TITLE>\n measurements of aerodynamic forces for various mean\n angles of attack on an airfoil oscillating in pitch\n and on two finite-span wings oscillating in bending\n with emphasis on damping in the stall .\n '
p1115
sI1116
S'<TITLE>\n general instability of stiffened cylinders .\n '
p1116
sI1117
S'<TITLE>\n stability of orthotropic cylindrical shells under combined\n loading .\n '
p1117
sI1118
S'<TITLE>\n elastic stability of orthotropic shells .\n '
p1118
sI1119
S'<TITLE>\n plastic stability theory of thin shells .\n '
p1119
sI1120
S'<TITLE>\n a unified theory of plastic buckling of columns and\n plates .\n '
p1120
sI1121
S'<TITLE>\n compressive and torsional buckling of thin-wall cylinders\n in the yield region .\n '
p1121
sI1122
S'<TITLE>\n on the role of initial imperfections in plastic buckling\n of cylinders under axial compression\n '
p1122
sI1123
S"<TITLE>\n an extension of donnell's equation for a circular cylindrical shell .\n "
p1123
sI1124
S'<TITLE>\n design of missile bodies for minimum drag at very high\n speeds - thickness ratio, lift, and center of pressure\n given .\n '
p1124
sI1125
S'<TITLE>\n collapse by instability of thin cylindrical shells\n under external pressure .\n '
p1125
sI1126
S"<TITLE>\n an engineer's conceptual approach to the buckling of\n cylindrical shell (axial loading) .\n "
p1126
sI1127
S'<TITLE>\n the buckling of sandwich type panels .\n '
p1127
sI1128
S'<TITLE>\n face wrinkling and core strength in sandwich construction .\n '
p1128
sI1129
S'<TITLE>\n general instability of a ring stiffened circular cylindrical\n shell under hydrostatic pressure .\n '
p1129
sI1130
S'<TITLE>\n handbook of structural stability . pt .vi . strength\n of stiffened curved plates and shells .\n '
p1130
sI1131
S'<TITLE>\n the effect of axial constraint on the instability of\n thin conical shells under external pressure .\n '
p1131
sI1132
S'<TITLE>\n general instability of ring stiffened cylindrical shells\n subject to external hydrostatic pressure - a comparison\n of theory and experiment .\n '
p1132
sI1133
S"<TITLE>\n a simple extension of southwell's method for determining the elastic\n general instability pressure of ring-stiffened cylinders subject\n to external hydrostatic pressure .\n "
p1133
sI1134
S'<TITLE>\n torispherical shells - a caution to designers .\n '
p1134
sI1135
S'<TITLE>\n limit analysis of symmetrically loaded thin shells\n of revolution .\n '
p1135
sI1136
S'<TITLE>\n design of thin walled torispherical and toriconical\n pressure - vessel heads .\n '
p1136
sI1137
S'<TITLE>\n on the theory of thin elastic toroidal shells .\n '
p1137
sI1138
S'<TITLE>\n asymptotic solutions of toroidal shell problems .\n '
p1138
sI1139
S'<TITLE>\n the effect of entrance velocity on the flow of a rarefied\n gas, through a tube .\n '
p1139
sI1140
S'<TITLE>\n shock-standoff distance for spherical bodies at high\n mach numbers .\n '
p1140
sI1141
S'<TITLE>\n the wake behind an oscillating vehicle .\n '
p1141
sI1142
S'<TITLE>\n effect of wall divergence on sonic flows in solid wall\n tunnels .\n '
p1142
sI1143
S'<TITLE>\n a one-foot hypervelocity shock tunnel in which high-enthalpy\n real gas flows can be generated with flow times of\n about 180 milliseconds .\n '
p1143
sI1144
S'<TITLE>\n slipstream flow around several tilt-wing vtol aircraft models\n operating near the ground .\n '
p1144
sI1145
S'<TITLE>\n buckling of core-stabilized cylinders under axisymmetric external\n loads .\n '
p1145
sI1146
S'<TITLE>\n thermal buckling of cylinders .\n '
p1146
sI1147
S'<TITLE>\n heat transfer to bodies traveling at high speed in the upper\n atmosphere .\n '
p1147
sI1148
S'<TITLE>\n knudsen flow through a circular capillary .\n '
p1148
sI1149
S'<TITLE>\n similar temperature boundary layers .\n '
p1149
sI1150
S'<TITLE>\n preliminary results of density measurements from an air force satellite.\n '
p1150
sI1151
S'<TITLE>\n experiments on supersonic blunt-body flows .\n '
p1151
sI1152
S'<TITLE>\n on periodically oscillating wakes in the oseen approximation .\n '
p1152
sI1153
S'<TITLE>\n a study of the simulation of flow with free stream mach number 1 in a\n choked wind tunnel .\n '
p1153
sI1154
S'<TITLE>\n on the influence of wall boundary layers in closed transonic test sections\n .\n '
p1154
sI1155
S'<TITLE>\n some experimental investigations on the influence of wall boundary\n layers upon wind tunnel measurements at high subsonic speeds .\n '
p1155
sI1156
S'<TITLE>\n experimental investigation of attenuation of strong\n shock waves in a shock tube with hydrogen and helium\n as driver gases .\n '
p1156
sI1157
S'<TITLE>\n hypersonic shock tunnel .\n '
p1157
sI1158
S'<TITLE>\n the tailored-interface hypersonic shock tunnel .\n '
p1158
sI1159
S'<TITLE>\n experimental investigation of the effect of yaw on\n rates of heat transfer to transverse circular\n cylinders in a 6500-foot-per-second\n hypersonic air stream .\n '
p1159
sI1160
S'<TITLE>\n recent advances in gaseous detonation .\n '
p1160
sI1161
S'<TITLE>\n stagnation point heat transfer measurements in dissociated\n air .\n '
p1161
sI1162
S'<TITLE>\n force-test investigation of the stability and control\n characteristics of a 1/8 scale model of a tilt-wing\n vertical take-off and landing airplane .\n '
p1162
sI1163
S'<TITLE>\n force-test investigation of the stability and control\n characteristics of a scale model of a tilt-wing vertical\n take-off and landing aircraft .\n '
p1163
sI1164
S'<TITLE>\n effect of ground proximity on the aerodynamic characteristics\n of a four- engined vertical take-off and landing transport\n airplane model with tilting wing and propellers .\n '
p1164
sI1165
S'<TITLE>\n an investigation of the effect of downwash from a vtol\n aircraft and a helicopter in the ground environment .\n '
p1165
sI1166
S'<TITLE>\n an investigation to determine conditions under which\n downwash from vtol aircraft will start surface erosion\n from various types of terrain .\n '
p1166
sI1167
S'<TITLE>\n an experimental study of the effect of downwash from\n a twin-propeller vtol aircraft on several types of\n ground surfaces .\n '
p1167
sI1168
S'<TITLE>\n damage incurred on a tilt-wing multipropeller vtol/stol\n aircraft operating over a level, gravel-covered surface .\n '
p1168
sI1169
S'<TITLE>\n hangling qualities experience with several vtol research\n aircraft .\n '
p1169
sI1170
S'<TITLE>\n structural loads surveys on two tilt-wing vtol configurations .\n '
p1170
sI1171
S'<TITLE>\n the stability under axial compression and lateral pressure\n of circular cylindrical shells with a soft elastic\n core .\n '
p1171
sI1172
S'<TITLE>\n elastic stability of circular cylindrical shells stabilized\n by a soft elastic core .\n '
p1172
sI1173
S'<TITLE>\n the buckling of cylindrical shells under longitudinally varying loads .\n '
p1173
sI1174
S'<TITLE>\n general theory of buckling .\n '
p1174
sI1175
S'<TITLE>\n stresses from local loadings in cylindrical pressure\n vessels .\n '
p1175
sI1176
S'<TITLE>\n bending tests of ring-stiffened circular cylinders .\n '
p1176
sI1177
S'<TITLE>\n effects of rapid heating on strength of airframe components .\n '
p1177
sI1178
S'<TITLE>\n buckling of ring-stiffened cylinders under a pure bending\n moment and a nonuniform temperature distribution .\n '
p1178
sI1179
S'<TITLE>\n a theory of asymmetric hypersonic blunt-body flows .\n '
p1179
sI1180
S'<TITLE>\n approximate analysis of the slot injection of a gas\n in laminar flow .\n '
p1180
sI1181
S'<TITLE>\n steady magnetohydrodynamic flow past a non-conducting\n wedge .\n '
p1181
sI1182
S'<TITLE>\n an approximate solution for laminar boundary layer flow .\n '
p1182
sI1183
S'<TITLE>\n laminar hypersonic trail in the expansion-conduction\n region .\n '
p1183
sI1184
S'<TITLE>\n three dimensional effects in viscous wakes .\n '
p1184
sI1185
S'<TITLE>\n an integral method for calculating heat and mass transfer\n in laminar boundary layers .\n '
p1185
sI1186
S'<TITLE>\n lift of slender delta wings according to newtonian\n theory .\n '
p1186
sI1187
S'<TITLE>\n shock-induced boundary layer separation in overexpanded conical exhaust\n nozzles .\n '
p1187
sI1188
S'<TITLE>\n factors affecting lift-drag ratios at mach numbers\n from 5 to 20 .\n '
p1188
sI1189
S'<TITLE>\n nonequilibrium flow past a wedge .\n '
p1189
sI1190
S'<TITLE>\n flow of a gas near a solid surface .\n '
p1190
sI1191
S'<TITLE>\n heat transfer to a hemisphere-cylinder at low reynolds\n numbers .\n '
p1191
sI1192
S'<TITLE>\n an integral method for calculation of supersonic laminar\n boundary layer with heat transfer on yawed cone .\n '
p1192
sI1193
S'<TITLE>\n some exact solutions for cavitating curvilinear bodies .\n '
p1193
sI1194
S'<TITLE>\n magnetohydrodynamic flow past a thin airfoil .\n '
p1194
sI1195
S'<TITLE>\n experiments with two-dimensional, transversely impinging\n '
p1195
sI1196
S'<TITLE>\n growth of the turbulent wake behind a supersonic sphere .\n '
p1196
sI1197
S'<TITLE>\n unsteady aerodynamic forces on slender supersonic aircraft\n with flexible wings and bodies .\n '
p1197
sI1198
S'<TITLE>\n the blunt-leading-edge problem in hypersonic flow .\n '
p1198
sI1199
S'<TITLE>\n theoretical investigations of a supersonic laminar\n boundary layer with foreign-gas injection .\n '
p1199
sI1200
S'<TITLE>\n hypersonic viscous flow over a sweat-cooled flat plate .\n '
p1200
sI1201
S'<TITLE>\n a study of slender shapes of minimum drag using the\n newton-busemann pressure coefficient law .\n '
p1201
sI1202
S'<TITLE>\n uniformly valid second-order solution for supersonic\n flow over cruciform surfaces .\n '
p1202
sI1203
S'<TITLE>\n the propagation of a nonuniform magnetohydrodynamic\n shock wave into a moving monatomic fluid .\n '
p1203
sI1204
S'<TITLE>\n experimental effect of bluntness and gas rarefaction\n on drag coefficients and stagnation heat transfer on\n axisymmetric shapes in hypersonic flow .\n '
p1204
sI1205
S'<TITLE>\n effects of cooling on boundary layer transition on\n a hemi- sphere in simulated hypersonic flow .\n '
p1205
sI1206
S'<TITLE>\n magnetohydrodynamic mach cones .\n '
p1206
sI1207
S'<TITLE>\n supersonic airfoil performance with small heat addition .\n '
p1207
sI1208
S'<TITLE>\n a linearized analysis of the forces exerted on a rigid\n wing by a shock wave .\n '
p1208
sI1209
S'<TITLE>\n aerodynamic processes in the downwash-impingement problem .\n '
p1209
sI1210
S'<TITLE>\n on slender airfoil theory for nonequilibrium flow .\n '
p1210
sI1211
S'<TITLE>\n boundary layer transition at supersonic speedsthree-dimensional\n roughness effects (spheres).\n '
p1211
sI1212
S'<TITLE>\n effect of uniformly distributed roughness on turbulent\n skin-friction drag at supersonic speeds .\n '
p1212
sI1213
S'<TITLE>\n heat transfer to slender cones in hypersonic flow,\n including effects of yaw and nose bluntness .\n '
p1213
sI1214
S'<TITLE>\n the drag of elongated bodies over a wide reynolds number\n range .\n '
p1214
sI1215
S'<TITLE>\n the effect of slip particularly for highly cooled walls .\n '
p1215
sI1216
S'<TITLE>\n pressure distribution in regions of step-induced turbulent\n separation .\n '
p1216
sI1217
S'<TITLE>\n application of inequality constraints to variational\n problems of lifting re-entry .\n '
p1217
sI1218
S'<TITLE>\n experimental lift and drag of a series of glide configurations\n at mach numbers 12 .6 and 17 .5.\n '
p1218
sI1219
S'<TITLE>\n determination of lift or drag programs to minimize\n re-entry heating .\n '
p1219
sI1220
S'<TITLE>\n boundary layer transition in the presence of streamwise\n vortices .\n '
p1220
sI1221
S'<TITLE>\n steady flow of conducting fluids in channels under\n transverse magnetic fields, with consideration of hall\n effect .\n '
p1221
sI1222
S'<TITLE>\n axisymmetric magnetohydrodynamic channel flow .\n '
p1222
sI1223
S'<TITLE>\n inviscid-incompressible-flow theory of static two-dimensional\n solid jets, in proximity to the ground .\n '
p1223
sI1224
S'<TITLE>\n on the plk method and the supersonic blunt-body problem .\n '
p1224
sI1225
S'<TITLE>\n the effect of adverse pressure gradients on the characteristics of\n turbulent boundary layers in supersonic streams .\n '
p1225
sI1226
S'<TITLE>\n heat transfer in the laminar boundary layer with ablation\n of vapor of arbitrary molecular weight .\n '
p1226
sI1227
S'<TITLE>\n pressure-gradient effects on the preston tube in supersonic\n flow .\n '
p1227
sI1228
S'<TITLE>\n leading-edge separation of laminar boundary layers\n in supersonic flow .\n '
p1228
sI1229
S'<TITLE>\n the effect of sweep angle on hypersonic flow over blunt\n wings .\n '
p1229
sI1230
S'<TITLE>\n hypersonic nozzle expansion of air with atom recombination\n present .\n '
p1230
sI1231
S'<TITLE>\n hypersonic flow over an elliptic cone: theory and experiment .\n '
p1231
sI1232
S'<TITLE>\n the curtain jet .\n '
p1232
sI1233
S'<TITLE>\n supersonic shear flow past an airfoil between two parallel\n walls .\n '
p1233
sI1234
S'<TITLE>\n direct calculation of pressure distribution on blunt\n hypersonic nose shapes with sharp corners .\n '
p1234
sI1235
S'<TITLE>\n a theory of the two dimensional laminar bounary layer\n over a curved surface .\n '
p1235
sI1236
S'<TITLE>\n the stagnation point boundary layer in the presence\n of an applied magnetic field .\n '
p1236
sI1237
S'<TITLE>\n foreign-gas injection into a compressible turbulent\n boundary layer on a flat plate .\n '
p1237
sI1238
S'<TITLE>\n the newtonian approximation in magnetic hypersonic\n stagnation-point flow .\n '
p1238
sI1239
S'<TITLE>\n body under lifting wing .\n '
p1239
sI1240
S'<TITLE>\n nonsimilar solutions of the compressible laminar boundary\n layer equations with applications to the upstream-transpiration\n cooling problem .\n '
p1240
sI1241
S'<TITLE>\n the turbulent boundary layer on chemically active ablating\n surfaces .\n '
p1241
sI1242
S'<TITLE>\n some considerations on the laminar stability of time-dependent basic\n flows .\n '
p1242
sI1243
S'<TITLE>\n supersonic boom of wing-body configurations .\n '
p1243
sI1244
S'<TITLE>\n on the aerodynamic noise of a turbulent jet .\n '
p1244
sI1245
S'<TITLE>\n some aspects of nonequilibrium flows .\n '
p1245
sI1246
S'<TITLE>\n solution of subsonic nonplanar lifting surface problems\n by means of high-speed digital computers .\n '
p1246
sI1247
S'<TITLE>\n the supersonic boom of a projectile related to drag\n and volume .\n '
p1247
sI1248
S'<TITLE>\n an analytic extension of the shock-expansion method .\n '
p1248
sI1249
S'<TITLE>\n plasma flow over a thin charged conductor .\n '
p1249
sI1250
S'<TITLE>\n high-speed viscous corner flow .\n '
p1250
sI1251
S'<TITLE>\n viscous flow past a quarter infinite plate .\n '
p1251
sI1252
S'<TITLE>\n on the approach to chemical and vibrational equilibrium\n behind a strong normal shock wave .\n '
p1252
sI1253
S'<TITLE>\n hypersonic viscous flow near the stagnation point in\n the presence of magnetic field .\n '
p1253
sI1254
S'<TITLE>\n combustion in the boundary layer on a porous surface .\n '
p1254
sI1255
S'<TITLE>\n the flow about a charged body moving in the lower atmosphere .\n '
p1255
sI1256
S'<TITLE>\n fluctuating lift and drag acting on a cylinder in a\n flow at supercritical reynolds numbers .\n '
p1256
sI1257
S'<TITLE>\n an optical boundary-layer probe .\n '
p1257
sI1258
S'<TITLE>\n heat transfer, recovery factor and pressure distributions\n around a circular cylinder normal to a supersonic rarefied\n air stream .\n '
p1258
sI1259
S'<TITLE>\n second-order theory for unsteady supersonic flow past\n slender pointed bodies of revolution .\n '
p1259
sI1260
S'<TITLE>\n on the response of the laminar boundary layer to small\n fluctuations of the free-stream velocity .\n '
p1260
sI1261
S'<TITLE>\n a method of calculating velocity distribution for turbulent\n boundary layers in adverse pressure distributions .\n '
p1261
sI1262
S'<TITLE>\n an extension of the linearized characteristics method\n for calculating the supersonic flow around elliptic\n cones .\n '
p1262
sI1263
S'<TITLE>\n turbulent heat transfer through a highly cooled, partially\n dissociated boundary layer .\n '
p1263
sI1264
S'<TITLE>\n boundary layer transition and heat transfer in shock\n tubes .\n '
p1264
sI1265
S'<TITLE>\n on the thrust hypothesis for the jet flap including\n jet-mixing effects .\n '
p1265
sI1266
S'<TITLE>\n minimum wing wave drag with volume constraint .\n '
p1266
sI1267
S'<TITLE>\n on supersonic flow past thick airfoils .\n '
p1267
sI1268
S'<TITLE>\n stable combustion of a high-velocity gas in a heated\n boundary layer .\n '
p1268
sI1269
S'<TITLE>\n a study of supersonic combustion .\n '
p1269
sI1270
S'<TITLE>\n supersonic inlet dynamics .\n '
p1270
sI1271
S'<TITLE>\n theory of supersonic propeller aerodynamics .\n '
p1271
sI1272
S'<TITLE>\n oscillatory aerodynamic coefficients for a unified\n supersonic hypersonic strip theory .\n '
p1272
sI1273
S'<TITLE>\n magnetohydrodynamic effects on the formation of couette,\n flow .\n '
p1273
sI1274
S'<TITLE>\n real gas effects in flow over blunt bodies at hypersonic speeds .\n '
p1274
sI1275
S'<TITLE>\n flow about an unsteadily rotating disc .\n '
p1275
sI1276
S'<TITLE>\n a three-dimensional linearized analysis of the forces\n exerted on a rigid wing by a shock wave .\n '
p1276
sI1277
S'<TITLE>\n a study of vortex cancellation .\n '
p1277
sI1278
S'<TITLE>\n transition in a separated laminar boundary layer .\n '
p1278
sI1279
S'<TITLE>\n sublimation in a hypersonic environment .\n '
p1279
sI1280
S'<TITLE>\n wings with minimum drag due to lift in supersonic flow .\n '
p1280
sI1281
S'<TITLE>\n turbulent heat transfer on blunt-nosed bodies in two-dimensional\n and general three-dimensional hypersonic flow .\n '
p1281
sI1282
S'<TITLE>\n compressible flat-plate boundary-layer flow with an\n applied magnetic field .\n '
p1282
sI1283
S'<TITLE>\n on shearing flow between porous coaxial cylinders .\n '
p1283
sI1284
S'<TITLE>\n the transition to tubulence in a boundary layer on\n a blunt cone in supersonic flow .\n '
p1284
sI1285
S'<TITLE>\n experiments at hypersonic speeds on circular cones\n at incidence .\n '
p1285
sI1286
S'<TITLE>\n equilibrium real-gas performance charts for a shypersonic\n shock-tube wind-tunnel employing nitrogen .\n '
p1286
sI1287
S'<TITLE>\n progress report on an experiment on the effect of surface\n flexibility on the stability of laminar flow .\n '
p1287
sI1288
S'<TITLE>\n analysis of the fluid mechanics of secondary injection\n for thrust vector control .\n '
p1288
sI1289
S'<TITLE>\n numerical technique to lifting surface theory for calculation\n of unsteady aerodynamic forces due to continuous sinusoidal\n gusts on several wing planforms at sobsonic speeds .\n '
p1289
sI1290
S'<TITLE>\n measured and calculated subsonic and transonic flutter\n characteristics of a 45 sweptback wing planform in\n air and in freon-12 in the langley transonic dynamics\n tunnel .\n '
p1290
sI1291
S'<TITLE>\n atmosphere entries with spacecraft lift-drag ratios\n modulated to limit decelerations .\n '
p1291
sI1292
S'<TITLE>\n effect of jet pluming on the static stability of cone-cylinder-flare\n configurations at a mach number of 9. 65 .\n '
p1292
sI1293
S'<TITLE>\n design of stiffened cylinders in axial compression .\n '
p1293
sI1294
S'<TITLE>\n non-linear shallow shell analysis by the matrix force\n method .\n '
p1294
sI1295
S'<TITLE>\n recent advances in nonequilibrium dissociating gasdynamics .\n '
p1295
sI1296
S'<TITLE>\n non-equilibrium expansions of air with coupled chemical\n reactions .\n '
p1296
sI1297
S'<TITLE>\n ionization nonequilibrium in expanding flows .\n '
p1297
sI1298
S'<TITLE>\n theory of radiation from luminous shock waves in nitrogen .\n '
p1298
sI1299
S'<TITLE>\n hypersonic viscous shock layer .\n '
p1299
sI1300
S'<TITLE>\n some effects of bluntness on boundary layer transition\n and heat transfer at supersonic speeds .\n '
p1300
sI1301
S'<TITLE>\n compressible boundary layers on bodies of revolution .\n '
p1301
sI1302
S'<TITLE>\n the development of the boundary layer in supersonic\n shear flow .\n '
p1302
sI1303
S'<TITLE>\n air pressure on a cone moving at high speeds .\n '
p1303
sI1304
S'<TITLE>\n newtonian flow over a surface . colston symposium on\n hypersonic flow,\n '
p1304
sI1305
S'<TITLE>\n a proposed programme of wind tunnel tests at hypersonic\n speeds to investigate the lifting properties of geometrically\n slender shapes .\n '
p1305
sI1306
S'<TITLE>\n experiments on circular cones at yaw in supersonic\n flow .\n '
p1306
sI1307
S'<TITLE>\n laminar heat-transfer and pressure measurements at\n a mach number of 6 on sharp and blunt 15 half-angle\n cones at angles of attack up to 90 .\n '
p1307
sI1308
S'<TITLE>\n a guide to the use of the m. i. t.  cone tables .\n '
p1308
sI1309
S'<TITLE>\n hypersonic flows past a yawed circular cone and other\n pointed bodies .\n '
p1309
sI1310
S'<TITLE>\n survey of inviscid hypersonic flow theory for geometrically\n slender shapes .\n '
p1310
sI1311
S'<TITLE>\n some simple solutions to the problem of predicting\n boundary layer self-induced pressures .\n '
p1311
sI1312
S'<TITLE>\n tabulated solutions of the equilibrium gas properties\n behind the incidents and reflected normal shock-wave\n in a shock-tube .\n '
p1312
sI1313
S'<TITLE>\n on the flow in a reflected shock tunnel .\n '
p1313
sI1314
S'<TITLE>\n production of high temperature gases in shock tubes .\n '
p1314
sI1315
S'<TITLE>\n performance estimates for the rae 6in . high-pressure\n shock tube .\n '
p1315
sI1316
S'<TITLE>\n temperature measurements of shock-waves by spectrum-line reversal, ii a\n double beam method .\n '
p1316
sI1317
S'<TITLE>\n shock-tube testing time .\n '
p1317
sI1318
S'<TITLE>\n stagnation temperature measurements in a hypersonic gun tunnel using the\n  sodium-line reversal method .\n '
p1318
sI1319
S'<TITLE>\n real gas effects in flow over blunt bodies at hypersonic speeds .\n '
p1319
sI1320
S'<TITLE>\n divergence of plate airfoils of low aspect ratio at\n supersonic speeds .\n '
p1320
sI1321
S'<TITLE>\n effects of a flexible boundary on hydrodynamic stability .\n '
p1321
sI1322
S'<TITLE>\n qualitiative solutions of the stability equation for a boundary layer in\n  contact with various forms of flexible surface .\n '
p1322
sI1323
S'<TITLE>\n an investigation of the use of an auxiliary slot to\n re-establish laminar flow on low drag aerofoils .\n '
p1323
sI1324
S'<TITLE>\n the effect on transition of isolated surface excrescences\n in the boundary layer .\n '
p1324
sI1325
S'<TITLE>\n experiments on the use of suction through perforated\n strips for maintaining laminar flow . transition and\n drag measurements .\n '
p1325
sI1326
S'<TITLE>\n interaction of secondary injectants and rocket exhaust\n for thrust vector control .\n '
p1326
sI1327
S'<TITLE>\n on the propagation and structure of the blast wave .\n '
p1327
sI1328
S'<TITLE>\n the production of aerodynamic forces by heat addition\n on external surfaces of aircraft .\n '
p1328
sI1329
S'<TITLE>\n some aspects of non-stationary airfoil theory and its\n practical application .\n '
p1329
sI1330
S'<TITLE>\n on some fourier transforms in the theory of non-stationary\n flows .\n '
p1330
sI1331
S'<TITLE>\n calculated responses of a large sweptwing airplane\n to continuous turbulence with flight-test comparisons .\n '
p1331
sI1332
S'<TITLE>\n calculated spanwise lift distributions, influence functions\n and influence coefficients for unswept wings in subsonic\n flow .\n '
p1332
sI1333
S'<TITLE>\n aerodynamic forces on wings in non-uniform motion .\n '
p1333
sI1334
S'<TITLE>\n calculated spanwise lift distributions and aerodynamic\n influence coefficients for swept wings in subsonic\n flow .\n '
p1334
sI1335
S'<TITLE>\n use of freon-12 as a fluid for aerodynamic testing .\n '
p1335
sI1336
S'<TITLE>\n studies of the use of freon-12 as a wind tunnel testing\n medium .\n '
p1336
sI1337
S'<TITLE>\n study of effects of sweep on the flutter of cantilever\n wings .\n '
p1337
sI1338
S'<TITLE>\n investigation to determine effects of center of gravity location on the\n transonic flutter characteristics of a 45degree sweptback wing .\n '
p1338
sI1339
S'<TITLE>\n calculation of flutter characteristics for finite-span swept or unswept\n wings at subsonic and supersonic speeds by a modified strip analysis .\n '
p1339
sI1340
S'<TITLE>\n method of controlling stiffness properties of a solid-construction\n model wing .\n '
p1340
sI1341
S'<TITLE>\n investigation of wing flutter at transonic speeds for six systematically\n  varied wing plan forms .\n '
p1341
sI1342
S'<TITLE>\n the calculation of aerodynamic loading on surfaces of any shape .\n '
p1342
sI1343
S'<TITLE>\n formulas for the supersonic loading, lift and drag\n of flat swept back wings with leading edges behind\n the mach lines .\n '
p1343
sI1344
S'<TITLE>\n atmospheric entries with vehicle lift-drag ratio modulated\n to limit deceleration and rate of deceleration vehicles\n with maximum lift-drag ratio of 0. 5.\n '
p1344
sI1345
S"<TITLE>\n the use of aerodynamic lift during entry into the earth's\n atmosphere .\n "
p1345
sI1346
S'<TITLE>\n modulated entry .\n '
p1346
sI1347
S'<TITLE>\n approximate analysis of atmospheric entry corridors\n and angles .\n '
p1347
sI1348
S'<TITLE>\n radiative heat transfer during atmosphere entry at\n parabolic velocity .\n '
p1348
sI1349
S'<TITLE>\n effects of simulated rocket jet exhaust on stability\n and control of a research type airplane configuration\n at a mach number of 6. 86 .\n '
p1349
sI1350
S'<TITLE>\n effects of jet billowing on stability of missile-type\n bodies at mach 3. 85 .\n '
p1350
sI1351
S'<TITLE>\n exploratory tests of the effects of jet plumes on the\n flow over cone- cylinder flare bodies .\n '
p1351
sI1352
S'<TITLE>\n aerodynamic investigation of a parabolic body of revolution\n at mach number of 1. 92 and some effects of an annular\n supersonic jet exhausting from the base .\n '
p1352
sI1353
S'<TITLE>\n investigation of a two-step nozzle in the langley 11in .\n '
p1353
sI1354
S'<TITLE>\n investigation of the flow through a single stage two\n dimensional nozzle in the langley 11in . hypersonic\n tunnel .\n '
p1354
sI1355
S'<TITLE>\n boundary layer displacement effects in air at mach\n numbers of 6. 8 and 9. 6.\n '
p1355
sI1356
S'<TITLE>\n secondary flow fields embedded in hypersonic shock\n layers .\n '
p1356
sI1357
S'<TITLE>\n compressive buckling of simply supplorted plates with\n longitudinal stiffeners .\n '
p1357
sI1358
S'<TITLE>\n compressive buckling of simply supported plates with\n transverse stiffeners .\n '
p1358
sI1359
S'<TITLE>\n compression tests on circular cylinders stiffened longitudinally\n by closely spaced z-section stringers .\n '
p1359
sI1360
S'<TITLE>\n simplified analysis of general instability of stiffened\n shells in pure bending .\n '
p1360
sI1361
S'<TITLE>\n large deflections of structures subjected to heating\n and external loads .\n '
p1361
sI1362
S'<TITLE>\n non-linear analysis of heated, cambered wings by the matrix force\n method .\n '
p1362
sI1363
S'<TITLE>\n a characteristic type of instability in the large deflections\n of elastic plates .\n '
p1363
sI1364
S'<TITLE>\n an experimental investigation of the interaction between shock waves and\n  boundary layers .\n '
p1364
sI1365
S'<TITLE>\n approximate calculation of the laminar boundary layer .\n '
p1365
sI1366
S'<TITLE>\n the compressible laminar boundary layer with heat transfer\n and arbitrary pressure gradient .\n '
p1366
sI1367
S'<TITLE>\n a theoretical investigation of the effects of mach number, reynolds\n number, wall temperature and surface curvature on laminar separation in\n supersonic flow .\n '
p1367
sI1368
S'<TITLE>\n three dimensional viscous wakes .\n '
p1368
sI1369
S"<TITLE>\n steady motion of a sphere., oseens's criticism and solution .\n "
p1369
sI1370
S'<TITLE>\n some remarks on the flat plate boundary layer .\n '
p1370
sI1371
S'<TITLE>\n axisymmetric free mixing with swirl .\n '
p1371
sI1372
S'<TITLE>\n on axially symmetric, turbulent, compressible mixing in the presence\n of initial boundary layer .\n '
p1372
sI1373
S'<TITLE>\n nose drag in free-molecule flow and its minimization .\n '
p1373
sI1374
S'<TITLE>\n theoretical analysis of turbulent mixing of reactive\n gases with application to supersonic combustion of\n hydrogen .\n '
p1374
sI1375
S'<TITLE>\n an approximate solution for the axisymmetric jet of a laminar\n compressible fluid .\n '
p1375
sI1376
S'<TITLE>\n some applications in physics of the p-function .\n '
p1376
sI1377
S'<TITLE>\n theoretical investigation of the flow field about blunt\n nosed bodies in supersonic flight .\n '
p1377
sI1378
S'<TITLE>\n blunt-cone pressure distributions at hypersonic mach numbers .\n '
p1378
sI1379
S'<TITLE>\n hypersonic flight and the re-entry problem .\n '
p1379
sI1380
S'<TITLE>\n the problem of obtaining high lift-drag ratios at supersonic speeds .\n '
p1380
sI1381
S'<TITLE>\n effect of mach number on boundary layer transition\n in the presence of pressure rise and surface roughness\n on an ogive-cylinder body with cold wall conditions .\n '
p1381
sI1382
S"<TITLE>\n the solution of the equations of the laminar boundary\n layer for schubauer's observed pressure distribution\n for an elliptic cylinder .\n "
p1382
sI1383
S'<TITLE>\n on the theory of laminar boundary layer involving separation .\n '
p1383
sI1384
S'<TITLE>\n a theoretical calculation of the laminar boundary layer\n around an elliptic cylinder and its comparison with\n experiment .\n '
p1384
sI1385
S'<TITLE>\n air flow in a separating laminar boundary layer .\n '
p1385
sI1386
S'<TITLE>\n analysis and calculation by integral methods of laminar\n compressible boundary layer with heat transfer and\n with and without pressure gradient .\n '
p1386
sI1387
S'<TITLE>\n the buckling of a square panel under shear, when one\n pair of opposite edges is clamped and the other pair\n is simply supported .\n '
p1387
sI1388
S'<TITLE>\n a process for the step-by-step integration of differential\n equations in an automatic digital computing machine .\n '
p1388
sI1389
S'<TITLE>\n numerical construction of detached shock waves .\n '
p1389
sI1390
S'<TITLE>\n on the numerical calculation of detached bow shock\n waves in hypersonic flow .\n '
p1390
sI1391
S'<TITLE>\n shock wave and flow field development in hypersonic re-entry .\n '
p1391
sI1392
S'<TITLE>\n the solution of small displacement, stability or vibration\n problems concerning a flat rectangular panel when the\n edges are either clamped or simply supported .\n '
p1392
sI1393
S'<TITLE>\n heat transfer near the forward stagnation point of\n a body of revolution .\n '
p1393
sI1394
S'<TITLE>\n stagnation point heat transfer measurements in hypersonic\n low density flow .\n '
p1394
sI1395
S'<TITLE>\n low density stagnation point heat transfer measurements\n in the hypersonic shock tunnel .\n '
p1395
sI1396
S'<TITLE>\n shear buckling of clamped and simply-supported infinitely\n long plates reinforced by transverse stiffeners .\n '
p1396
sI1397
S'<TITLE>\n critical shear stress of an infinitely long simply\n supported plate with transverse stiffeners .\n '
p1397
sI1398
S'<TITLE>\n stability of rectangular plates under shear and bending\n forces .\n '
p1398
sI1399
S'<TITLE>\n buckling of transverse stiffened plates under shear .\n '
p1399
sI1400
S'<TITLE>\n the buckling shear stress of simply-supported infinitely\n long plates with transverse stiffeners .\n '
p1400
s.